   1              		.arch armv7e-m
   2              		.eabi_attribute 27, 1
   3              		.eabi_attribute 28, 1
   4              		.eabi_attribute 20, 1
   5              		.eabi_attribute 21, 1
   6              		.eabi_attribute 23, 3
   7              		.eabi_attribute 24, 1
   8              		.eabi_attribute 25, 1
   9              		.eabi_attribute 26, 1
  10              		.eabi_attribute 30, 4
  11              		.eabi_attribute 34, 1
  12              		.eabi_attribute 18, 4
  13              		.file	"led.c"
  14              		.text
  15              	.Ltext0:
  16              		.cfi_sections	.debug_frame
  17              		.align	1
  18              		.global	led_init
  19              		.arch armv7e-m
  20              		.syntax unified
  21              		.thumb
  22              		.thumb_func
  23              		.fpu fpv4-sp-d16
  24              		.type	led_init, %function
  25              	led_init:
  26              	.LFB382:
  27              		.file 1 "src/led.c"
   1:src/led.c     **** #include "led.h"
   2:src/led.c     **** 
   3:src/led.c     **** #include "sys/clock.h"
   4:src/led.c     **** #include "sys/cm4.h"
   5:src/led.c     **** #include "sys/devices.h"
   6:src/led.c     **** 
   7:src/led.c     **** /* LED as simple output */
   8:src/led.c     **** /* ------------------------------------------------------------------------ */
   9:src/led.c     **** void led_init() {
  28              		.loc 1 9 17 view -0
  29              		.cfi_startproc
  30              		@ args = 0, pretend = 0, frame = 0
  31              		@ frame_needed = 0, uses_anonymous_args = 0
  32              		@ link register save eliminated.
  10:src/led.c     ****     /* Configure PA5 as output, pushpull, high speed */
  11:src/led.c     ****     GPIOA.MODER = GPIOA.MODER & (~(0b1 << 11));
  33              		.loc 1 11 5 view .LVU1
  34              		.loc 1 11 24 is_stmt 0 view .LVU2
  35 0000 064B     		ldr	r3, .L2
  36 0002 1A68     		ldr	r2, [r3]
  37              		.loc 1 11 31 view .LVU3
  38 0004 22F40062 		bic	r2, r2, #2048
  39              		.loc 1 11 17 view .LVU4
  40 0008 1A60     		str	r2, [r3]
  12:src/led.c     ****     GPIOA.MODER = GPIOA.MODER | (0b1 << 10);
  41              		.loc 1 12 5 is_stmt 1 view .LVU5
  42              		.loc 1 12 24 is_stmt 0 view .LVU6
  43 000a 1A68     		ldr	r2, [r3]
  44              		.loc 1 12 31 view .LVU7
  45 000c 42F48062 		orr	r2, r2, #1024
  46              		.loc 1 12 17 view .LVU8
  47 0010 1A60     		str	r2, [r3]
  13:src/led.c     ****     GPIOA.OTYPER = GPIOA.OTYPER & (~(0b1 << 5));
  48              		.loc 1 13 5 is_stmt 1 view .LVU9
  49              		.loc 1 13 25 is_stmt 0 view .LVU10
  50 0012 5A68     		ldr	r2, [r3, #4]
  51              		.loc 1 13 33 view .LVU11
  52 0014 22F02002 		bic	r2, r2, #32
  53              		.loc 1 13 18 view .LVU12
  54 0018 5A60     		str	r2, [r3, #4]
  14:src/led.c     **** }
  55              		.loc 1 14 1 view .LVU13
  56 001a 7047     		bx	lr
  57              	.L3:
  58              		.align	2
  59              	.L2:
  60 001c 00000000 		.word	GPIOA
  61              		.cfi_endproc
  62              	.LFE382:
  63              		.size	led_init, .-led_init
  64              		.align	1
  65              		.global	toggle_led
  66              		.syntax unified
  67              		.thumb
  68              		.thumb_func
  69              		.fpu fpv4-sp-d16
  70              		.type	toggle_led, %function
  71              	toggle_led:
  72              	.LFB383:
  15:src/led.c     **** 
  16:src/led.c     **** void toggle_led() {
  73              		.loc 1 16 19 is_stmt 1 view -0
  74              		.cfi_startproc
  75              		@ args = 0, pretend = 0, frame = 0
  76              		@ frame_needed = 0, uses_anonymous_args = 0
  77              		@ link register save eliminated.
  17:src/led.c     ****     /* on/off PA5 (nucleo led) */
  18:src/led.c     ****     GPIOA.ODR ^= (0b1 << 5);
  78              		.loc 1 18 5 view .LVU15
  79              		.loc 1 18 15 is_stmt 0 view .LVU16
  80 0020 024A     		ldr	r2, .L5
  81 0022 5369     		ldr	r3, [r2, #20]
  82 0024 83F02003 		eor	r3, r3, #32
  83 0028 5361     		str	r3, [r2, #20]
  19:src/led.c     **** }
  84              		.loc 1 19 1 view .LVU17
  85 002a 7047     		bx	lr
  86              	.L6:
  87              		.align	2
  88              	.L5:
  89 002c 00000000 		.word	GPIOA
  90              		.cfi_endproc
  91              	.LFE383:
  92              		.size	toggle_led, .-toggle_led
  93              		.align	1
  94              		.global	led_pwm_init
  95              		.syntax unified
  96              		.thumb
  97              		.thumb_func
  98              		.fpu fpv4-sp-d16
  99              		.type	led_pwm_init, %function
 100              	led_pwm_init:
 101              	.LVL0:
 102              	.LFB384:
  20:src/led.c     **** 
  21:src/led.c     **** /* LED as output using PWM */
  22:src/led.c     **** /* ------------------------------------------------------------------------ */
  23:src/led.c     **** void led_pwm_init(uint32_t TIM2_freq) {
 103              		.loc 1 23 39 is_stmt 1 view -0
 104              		.cfi_startproc
 105              		@ args = 0, pretend = 0, frame = 0
 106              		@ frame_needed = 0, uses_anonymous_args = 0
  24:src/led.c     ****     /* Configure PA5 as alternate function AF1 for TIM2_CH1 */
  25:src/led.c     ****     GPIOA.MODER = (GPIOA.MODER & ~(0b11 << 10)) | ( 0b1 << 11);
 107              		.loc 1 25 5 view .LVU19
 108              		.loc 1 25 25 is_stmt 0 view .LVU20
 109 0030 164A     		ldr	r2, .L8
 110 0032 1368     		ldr	r3, [r2]
 111              		.loc 1 25 32 view .LVU21
 112 0034 23F44063 		bic	r3, r3, #3072
 113              		.loc 1 25 49 view .LVU22
 114 0038 43F40063 		orr	r3, r3, #2048
  23:src/led.c     ****     /* Configure PA5 as alternate function AF1 for TIM2_CH1 */
 115              		.loc 1 23 39 view .LVU23
 116 003c 70B5     		push	{r4, r5, r6, lr}
 117              		.cfi_def_cfa_offset 16
 118              		.cfi_offset 4, -16
 119              		.cfi_offset 5, -12
 120              		.cfi_offset 6, -8
 121              		.cfi_offset 14, -4
 122              		.loc 1 25 17 view .LVU24
 123 003e 1360     		str	r3, [r2]
  26:src/led.c     ****     GPIOA.AFRL = (GPIOA.AFRL & ~(0xf << 20)) | (0b1 << 20);
 124              		.loc 1 26 5 is_stmt 1 view .LVU25
 125              		.loc 1 26 24 is_stmt 0 view .LVU26
 126 0040 136A     		ldr	r3, [r2, #32]
  27:src/led.c     **** 
  28:src/led.c     ****     /* configure TIM2_CH1 as PWM output */
  29:src/led.c     ****     TIM2.CR1 = 0x0080; /* <-- to modify: Buffered preload up-counting mode */
 127              		.loc 1 29 14 view .LVU27
 128 0042 134C     		ldr	r4, .L8+4
  26:src/led.c     ****     GPIOA.AFRL = (GPIOA.AFRL & ~(0xf << 20)) | (0b1 << 20);
 129              		.loc 1 26 30 view .LVU28
 130 0044 23F47003 		bic	r3, r3, #15728640
  26:src/led.c     ****     GPIOA.AFRL = (GPIOA.AFRL & ~(0xf << 20)) | (0b1 << 20);
 131              		.loc 1 26 46 view .LVU29
 132 0048 43F48013 		orr	r3, r3, #1048576
  26:src/led.c     ****     GPIOA.AFRL = (GPIOA.AFRL & ~(0xf << 20)) | (0b1 << 20);
 133              		.loc 1 26 16 view .LVU30
 134 004c 1362     		str	r3, [r2, #32]
 135              		.loc 1 29 5 is_stmt 1 view .LVU31
 136              		.loc 1 29 14 is_stmt 0 view .LVU32
 137 004e 8023     		movs	r3, #128
 138 0050 2360     		str	r3, [r4]
  30:src/led.c     ****     TIM2.CR2 = 0x0000;
 139              		.loc 1 30 5 is_stmt 1 view .LVU33
 140              		.loc 1 30 14 is_stmt 0 view .LVU34
 141 0052 0025     		movs	r5, #0
  31:src/led.c     ****     TIM2.SMCR = 0x0000;
  32:src/led.c     ****     TIM2.DIER = 0x0000;
  33:src/led.c     ****     TIM2.CCMR1 = 0x0068; /* <-- to modify: mode */
 142              		.loc 1 33 16 view .LVU35
 143 0054 6823     		movs	r3, #104
  30:src/led.c     ****     TIM2.CR2 = 0x0000;
 144              		.loc 1 30 14 view .LVU36
 145 0056 6560     		str	r5, [r4, #4]
  31:src/led.c     ****     TIM2.SMCR = 0x0000;
 146              		.loc 1 31 5 is_stmt 1 view .LVU37
  31:src/led.c     ****     TIM2.SMCR = 0x0000;
 147              		.loc 1 31 15 is_stmt 0 view .LVU38
 148 0058 A560     		str	r5, [r4, #8]
  32:src/led.c     ****     TIM2.CCMR1 = 0x0068; /* <-- to modify: mode */
 149              		.loc 1 32 5 is_stmt 1 view .LVU39
  32:src/led.c     ****     TIM2.CCMR1 = 0x0068; /* <-- to modify: mode */
 150              		.loc 1 32 15 is_stmt 0 view .LVU40
 151 005a E560     		str	r5, [r4, #12]
 152              		.loc 1 33 5 is_stmt 1 view .LVU41
 153              		.loc 1 33 16 is_stmt 0 view .LVU42
 154 005c A361     		str	r3, [r4, #24]
  34:src/led.c     ****     TIM2.CCMR2 = 0x0000; /* <-- to modify: mode */
 155              		.loc 1 34 5 is_stmt 1 view .LVU43
  35:src/led.c     ****     TIM2.CCER = 0x0001;  /* <-- to modify: Channel X output to pin X*/
 156              		.loc 1 35 15 is_stmt 0 view .LVU44
 157 005e 0123     		movs	r3, #1
  34:src/led.c     ****     TIM2.CCMR2 = 0x0000; /* <-- to modify: mode */
 158              		.loc 1 34 16 view .LVU45
 159 0060 E561     		str	r5, [r4, #28]
 160              		.loc 1 35 5 is_stmt 1 view .LVU46
  23:src/led.c     ****     /* Configure PA5 as alternate function AF1 for TIM2_CH1 */
 161              		.loc 1 23 39 is_stmt 0 view .LVU47
 162 0062 0646     		mov	r6, r0
 163              		.loc 1 35 15 view .LVU48
 164 0064 2362     		str	r3, [r4, #32]
  36:src/led.c     ****     TIM2.CNT = 0x0000;
 165              		.loc 1 36 5 is_stmt 1 view .LVU49
 166              		.loc 1 36 14 is_stmt 0 view .LVU50
 167 0066 6562     		str	r5, [r4, #36]
  37:src/led.c     ****     TIM2.PSC = get_APB1TIMCLK() / TIM2_Base; /* <-- to modify: Prescaler */
 168              		.loc 1 37 5 is_stmt 1 view .LVU51
 169              		.loc 1 37 16 is_stmt 0 view .LVU52
 170 0068 FFF7FEFF 		bl	get_APB1TIMCLK
 171              	.LVL1:
 172              		.loc 1 37 33 view .LVU53
 173 006c 094B     		ldr	r3, .L8+8
 174 006e B0FBF3F0 		udiv	r0, r0, r3
  38:src/led.c     ****     TIM2.ARR = TIM2_Base / TIM2_freq; /* <-- to modify: Auto-reload register according to TIM2_freq
 175              		.loc 1 38 26 view .LVU54
 176 0072 B3FBF6F3 		udiv	r3, r3, r6
  37:src/led.c     ****     TIM2.PSC = get_APB1TIMCLK() / TIM2_Base; /* <-- to modify: Prescaler */
 177              		.loc 1 37 14 view .LVU55
 178 0076 A062     		str	r0, [r4, #40]
 179              		.loc 1 38 5 is_stmt 1 view .LVU56
 180              		.loc 1 38 14 is_stmt 0 view .LVU57
 181 0078 E362     		str	r3, [r4, #44]
  39:src/led.c     ****     TIM2.CCR1 = 0x0000; /* <-- to modify: duty cycle according to TIM2_freq */
 182              		.loc 1 39 5 is_stmt 1 view .LVU58
 183              		.loc 1 39 15 is_stmt 0 view .LVU59
 184 007a 6563     		str	r5, [r4, #52]
  40:src/led.c     ****     TIM2.CCR2 = 0x0000; /* <-- to modify: duty cycle according to TIM2_freq */
 185              		.loc 1 40 5 is_stmt 1 view .LVU60
 186              		.loc 1 40 15 is_stmt 0 view .LVU61
 187 007c A563     		str	r5, [r4, #56]
  41:src/led.c     ****     TIM2.CCR3 = 0x0000; /* <-- to modify: duty cycle according to TIM2_freq */
 188              		.loc 1 41 5 is_stmt 1 view .LVU62
 189              		.loc 1 41 15 is_stmt 0 view .LVU63
 190 007e E563     		str	r5, [r4, #60]
  42:src/led.c     ****     TIM2.CCR4 = 0x0000; /* <-- to modify: duty cycle according to TIM2_freq */
 191              		.loc 1 42 5 is_stmt 1 view .LVU64
 192              		.loc 1 42 15 is_stmt 0 view .LVU65
 193 0080 2564     		str	r5, [r4, #64]
  43:src/led.c     ****     TIM2.EGR |= 0x0001; /* <-- to modify: activate update event */
 194              		.loc 1 43 5 is_stmt 1 view .LVU66
 195              		.loc 1 43 14 is_stmt 0 view .LVU67
 196 0082 6369     		ldr	r3, [r4, #20]
 197 0084 43F00103 		orr	r3, r3, #1
 198 0088 6361     		str	r3, [r4, #20]
  44:src/led.c     **** }
 199              		.loc 1 44 1 view .LVU68
 200 008a 70BD     		pop	{r4, r5, r6, pc}
 201              	.LVL2:
 202              	.L9:
 203              		.loc 1 44 1 view .LVU69
 204              		.align	2
 205              	.L8:
 206 008c 00000000 		.word	GPIOA
 207 0090 00000000 		.word	TIM2
 208 0094 A0860100 		.word	100000
 209              		.cfi_endproc
 210              	.LFE384:
 211              		.size	led_pwm_init, .-led_pwm_init
 212              		.align	1
 213              		.global	toggle_pwm_led
 214              		.syntax unified
 215              		.thumb
 216              		.thumb_func
 217              		.fpu fpv4-sp-d16
 218              		.type	toggle_pwm_led, %function
 219              	toggle_pwm_led:
 220              	.LFB385:
  45:src/led.c     **** 
  46:src/led.c     **** void toggle_pwm_led() {
 221              		.loc 1 46 23 is_stmt 1 view -0
 222              		.cfi_startproc
 223              		@ args = 0, pretend = 0, frame = 0
 224              		@ frame_needed = 0, uses_anonymous_args = 0
 225              		@ link register save eliminated.
  47:src/led.c     ****     /* on/off timer */
  48:src/led.c     ****     TIM2.CR1 ^= 0x1; /* <-- to modify : counter enable/disabled */
 226              		.loc 1 48 5 view .LVU71
 227              		.loc 1 48 14 is_stmt 0 view .LVU72
 228 0098 024A     		ldr	r2, .L11
 229 009a 1368     		ldr	r3, [r2]
 230 009c 83F00103 		eor	r3, r3, #1
 231 00a0 1360     		str	r3, [r2]
  49:src/led.c     **** }
 232              		.loc 1 49 1 view .LVU73
 233 00a2 7047     		bx	lr
 234              	.L12:
 235              		.align	2
 236              	.L11:
 237 00a4 00000000 		.word	TIM2
 238              		.cfi_endproc
 239              	.LFE385:
 240              		.size	toggle_pwm_led, .-toggle_pwm_led
 241              		.align	1
 242              		.global	update_pwm_duty_cycle
 243              		.syntax unified
 244              		.thumb
 245              		.thumb_func
 246              		.fpu fpv4-sp-d16
 247              		.type	update_pwm_duty_cycle, %function
 248              	update_pwm_duty_cycle:
 249              	.LVL3:
 250              	.LFB386:
  50:src/led.c     **** 
  51:src/led.c     **** void update_pwm_duty_cycle(float dc) {
 251              		.loc 1 51 38 is_stmt 1 view -0
 252              		.cfi_startproc
 253              		@ args = 0, pretend = 0, frame = 0
 254              		@ frame_needed = 0, uses_anonymous_args = 0
 255              		@ link register save eliminated.
  52:src/led.c     ****     /* Update duty cycle TIM2_CH1 */
  53:src/led.c     ****     TIM2.CCR1 = TIM2.ARR * dc; /* <-- to modify : update duty cycle according to 'dc' variable */
 256              		.loc 1 53 5 view .LVU75
 257              		.loc 1 53 21 is_stmt 0 view .LVU76
 258 00a8 054B     		ldr	r3, .L14
 259 00aa D3ED0B7A 		vldr.32	s15, [r3, #44]	@ int
 260              		.loc 1 53 26 view .LVU77
 261 00ae F8EE677A 		vcvt.f32.u32	s15, s15
 262 00b2 27EE800A 		vmul.f32	s0, s15, s0
 263              	.LVL4:
 264              		.loc 1 53 15 view .LVU78
 265 00b6 BCEEC00A 		vcvt.u32.f32	s0, s0
 266 00ba 83ED0D0A 		vstr.32	s0, [r3, #52]	@ int
  54:src/led.c     **** }
 267              		.loc 1 54 1 view .LVU79
 268 00be 7047     		bx	lr
 269              	.L15:
 270              		.align	2
 271              	.L14:
 272 00c0 00000000 		.word	TIM2
 273              		.cfi_endproc
 274              	.LFE386:
 275              		.size	update_pwm_duty_cycle, .-update_pwm_duty_cycle
 276              	.Letext0:
 277              		.file 2 "/usr/arm-none-eabi/include/machine/_default_types.h"
 278              		.file 3 "/usr/arm-none-eabi/include/sys/_stdint.h"
 279              		.file 4 "src/sys/devices.h"
 280              		.file 5 "src/sys/clock.h"