   1              		.arch armv7e-m
   2              		.eabi_attribute 27, 1
   3              		.eabi_attribute 28, 1
   4              		.eabi_attribute 20, 1
   5              		.eabi_attribute 21, 1
   6              		.eabi_attribute 23, 3
   7              		.eabi_attribute 24, 1
   8              		.eabi_attribute 25, 1
   9              		.eabi_attribute 26, 1
  10              		.eabi_attribute 30, 4
  11              		.eabi_attribute 34, 1
  12              		.eabi_attribute 18, 4
  13              		.file	"main.c"
  14              		.text
  15              	.Ltext0:
  16              		.cfi_sections	.debug_frame
  17              		.align	1
  18              		.global	_getch
  19              		.arch armv7e-m
  20              		.syntax unified
  21              		.thumb
  22              		.thumb_func
  23              		.fpu fpv4-sp-d16
  24              		.type	_getch, %function
  25              	_getch:
  26              	.LFB385:
  27              		.file 1 "src/main.c"
   1:src/main.c    **** #include <math.h>
   2:src/main.c    **** #include <stdio.h>
   3:src/main.c    **** 
   4:src/main.c    **** #include "sys/clock.h"
   5:src/main.c    **** #include "sys/cm4.h"
   6:src/main.c    **** #include "sys/devices.h"
   7:src/main.c    **** #include "sys/init.h"
   8:src/main.c    **** #include "sys/serial_io.h"
   9:src/main.c    **** #include "systick.h"
  10:src/main.c    **** 
  11:src/main.c    **** /* Inclusion des fichiers d'entête - a décomenter si besoin */
  12:src/main.c    **** #include "button.h"
  13:src/main.c    **** #include "counter.h"
  14:src/main.c    **** #include "led.h"
  15:src/main.c    **** 
  16:src/main.c    **** #define __EXO1__
  17:src/main.c    **** 
  18:src/main.c    **** #ifdef __EXO1__
  19:src/main.c    **** 
  20:src/main.c    **** /*****************************************************************************/
  21:src/main.c    **** /*                                 TYPEDEFS                                  */
  22:src/main.c    **** /*****************************************************************************/
  23:src/main.c    **** 
  24:src/main.c    **** typedef enum { SIMPLE_MODE, PWM_MODE } runmode_t;
  25:src/main.c    **** 
  26:src/main.c    **** /*****************************************************************************/
  27:src/main.c    **** /*                                  GLOBALS                                  */
  28:src/main.c    **** /*****************************************************************************/
  29:src/main.c    **** 
  30:src/main.c    **** volatile runmode_t mode_g = SIMPLE_MODE;
  31:src/main.c    **** volatile uint16_t max_ms_g = 500;
  32:src/main.c    **** volatile uint32_t swell_time_g = 5 * 1000;
  33:src/main.c    **** volatile float duty_cycle_g = 1;
  34:src/main.c    **** 
  35:src/main.c    **** char _getch() {
  28              		.loc 1 35 15 view -0
  29              		.cfi_startproc
  30              		@ args = 0, pretend = 0, frame = 0
  31              		@ frame_needed = 0, uses_anonymous_args = 0
  32              		@ link register save eliminated.
  36:src/main.c    ****     while (((USART2.SR >> 5) & 0b1) != 1) {
  33              		.loc 1 36 5 view .LVU1
  34              		.loc 1 36 20 is_stmt 0 view .LVU2
  35 0000 034B     		ldr	r3, .L5
  36              	.L2:
  37:src/main.c    ****     }
  37              		.loc 1 37 5 is_stmt 1 discriminator 1 view .LVU3
  36:src/main.c    ****     while (((USART2.SR >> 5) & 0b1) != 1) {
  38              		.loc 1 36 11 discriminator 1 view .LVU4
  36:src/main.c    ****     while (((USART2.SR >> 5) & 0b1) != 1) {
  39              		.loc 1 36 20 is_stmt 0 discriminator 1 view .LVU5
  40 0002 1A68     		ldr	r2, [r3]
  36:src/main.c    ****     while (((USART2.SR >> 5) & 0b1) != 1) {
  41              		.loc 1 36 11 discriminator 1 view .LVU6
  42 0004 9206     		lsls	r2, r2, #26
  43 0006 FCD5     		bpl	.L2
  38:src/main.c    ****     return (char)USART2.DR;
  44              		.loc 1 38 5 is_stmt 1 view .LVU7
  45              		.loc 1 38 24 is_stmt 0 view .LVU8
  46 0008 5868     		ldr	r0, [r3, #4]
  39:src/main.c    **** }
  47              		.loc 1 39 1 view .LVU9
  48 000a C0B2     		uxtb	r0, r0
  49 000c 7047     		bx	lr
  50              	.L6:
  51 000e 00BF     		.align	2
  52              	.L5:
  53 0010 00000000 		.word	USART2
  54              		.cfi_endproc
  55              	.LFE385:
  56              		.size	_getch, .-_getch
  57              		.global	__aeabi_f2d
  58              		.section	.rodata.str1.1,"aMS",%progbits,1
  59              	.LC0:
  60 0000 20202020 		.ascii	"         %2.2f s       %5d                \015\000"
  60      20202020 
  60      2025322E 
  60      32662073 
  60      20202020 
  61              		.text
  62              		.align	1
  63              		.global	SysTick_Handler
  64              		.syntax unified
  65              		.thumb
  66              		.thumb_func
  67              		.fpu fpv4-sp-d16
  68              		.type	SysTick_Handler, %function
  69              	SysTick_Handler:
  70              	.LFB386:
  40:src/main.c    **** 
  41:src/main.c    **** /*****************************************************************************/
  42:src/main.c    **** /*                            INTERRUPT HANDLERS                             */
  43:src/main.c    **** /*****************************************************************************/
  44:src/main.c    **** 
  45:src/main.c    **** void __attribute__((interrupt)) SysTick_Handler() {
  71              		.loc 1 45 51 is_stmt 1 view -0
  72              		.cfi_startproc
  73              		@ Stack Align: May be called with mis-aligned SP.
  74              		@ args = 0, pretend = 0, frame = 0
  75              		@ frame_needed = 0, uses_anonymous_args = 0
  46:src/main.c    ****     // Pas besoin de unset l'interrupt flag avec le systick
  47:src/main.c    **** 
  48:src/main.c    ****     volatile static uint16_t ms_counter_s = 0;
  76              		.loc 1 48 5 view .LVU11
  49:src/main.c    **** 
  50:src/main.c    **** 
  51:src/main.c    ****     if (mode_g == SIMPLE_MODE) {
  77              		.loc 1 51 5 view .LVU12
  45:src/main.c    ****     // Pas besoin de unset l'interrupt flag avec le systick
  78              		.loc 1 45 51 is_stmt 0 view .LVU13
  79 0014 6846     		mov	r0, sp
  80              		.cfi_register 13, 0
  81 0016 20F00701 		bic	r1, r0, #7
  82 001a 8D46     		mov	sp, r1
  83 001c 31B5     		push	{r0, r4, r5, lr}
  84              		.cfi_def_cfa_offset 16
  85              		.cfi_offset 13, -16
  86              		.cfi_offset 4, -12
  87              		.cfi_offset 5, -8
  88              		.cfi_offset 14, -4
  89              		.loc 1 51 16 view .LVU14
  90 001e 2D4B     		ldr	r3, .L16
  91 0020 1A78     		ldrb	r2, [r3]	@ zero_extendqisi2
  45:src/main.c    ****     // Pas besoin de unset l'interrupt flag avec le systick
  92              		.loc 1 45 51 view .LVU15
  93 0022 82B0     		sub	sp, sp, #8
  94              		.cfi_def_cfa_offset 24
  95              		.loc 1 51 8 view .LVU16
  96 0024 02F0FF00 		and	r0, r2, #255
  97 0028 1C46     		mov	r4, r3
  98 002a 002A     		cmp	r2, #0
  99 002c 31D1     		bne	.L8
  52:src/main.c    ****         // incr le compteur de ms
  53:src/main.c    ****         ms_counter_s += 1;
 100              		.loc 1 53 9 is_stmt 1 view .LVU17
 101              		.loc 1 53 22 is_stmt 0 view .LVU18
 102 002e 5B88     		ldrh	r3, [r3, #2]
  54:src/main.c    ****         
  55:src/main.c    ****         // mode simple: la led clignote toutes les $max_ms_g ms
  56:src/main.c    ****         if (ms_counter_s >= max_ms_g) {
 103              		.loc 1 56 26 view .LVU19
 104 0030 294D     		ldr	r5, .L16+4
  53:src/main.c    ****         
 105              		.loc 1 53 22 view .LVU20
 106 0032 0133     		adds	r3, r3, #1
 107 0034 9BB2     		uxth	r3, r3
 108 0036 6380     		strh	r3, [r4, #2]	@ movhi
 109              		.loc 1 56 9 is_stmt 1 view .LVU21
 110              		.loc 1 56 26 is_stmt 0 view .LVU22
 111 0038 6188     		ldrh	r1, [r4, #2]
 112 003a 2A88     		ldrh	r2, [r5]
 113 003c 89B2     		uxth	r1, r1
 114 003e 92B2     		uxth	r2, r2
 115              		.loc 1 56 12 view .LVU23
 116 0040 9142     		cmp	r1, r2
 117 0042 02D3     		bcc	.L9
  57:src/main.c    ****             ms_counter_s = 0;
 118              		.loc 1 57 13 is_stmt 1 view .LVU24
 119              		.loc 1 57 26 is_stmt 0 view .LVU25
 120 0044 6080     		strh	r0, [r4, #2]	@ movhi
  58:src/main.c    ****             toggle_led();
 121              		.loc 1 58 13 is_stmt 1 view .LVU26
 122 0046 FFF7FEFF 		bl	toggle_led
 123              	.LVL0:
 124              	.L9:
  59:src/main.c    ****         }
  60:src/main.c    ****         if (ms_counter_s % 50 == 0) {
 125              		.loc 1 60 9 view .LVU27
 126              		.loc 1 60 31 is_stmt 0 view .LVU28
 127 004a 6388     		ldrh	r3, [r4, #2]
 128 004c 3221     		movs	r1, #50
 129 004e 9AB2     		uxth	r2, r3
 130 0050 B2FBF1F3 		udiv	r3, r2, r1
 131 0054 01FB1323 		mls	r3, r1, r3, r2
 132              		.loc 1 60 12 view .LVU29
 133 0058 9BB2     		uxth	r3, r3
 134 005a ABB9     		cbnz	r3, .L7
  61:src/main.c    ****             printf("         %2.2f s       %5d                \r", ms_counter_s/1000.0, max_ms_g);
 135              		.loc 1 61 13 is_stmt 1 view .LVU30
 136              		.loc 1 61 80 is_stmt 0 view .LVU31
 137 005c 6388     		ldrh	r3, [r4, #2]
 138              		.loc 1 61 13 view .LVU32
 139 005e 9FED1F7A 		vldr.32	s14, .L16+8
 140 0062 2C88     		ldrh	r4, [r5]
 141              		.loc 1 61 80 view .LVU33
 142 0064 9BB2     		uxth	r3, r3
 143 0066 07EE903A 		vmov	s15, r3	@ int
 144 006a F8EEE77A 		vcvt.f32.s32	s15, s15
 145              		.loc 1 61 13 view .LVU34
 146 006e A4B2     		uxth	r4, r4
 147 0070 C7EE877A 		vdiv.f32	s15, s15, s14
 148 0074 17EE900A 		vmov	r0, s15
 149 0078 FFF7FEFF 		bl	__aeabi_f2d
 150              	.LVL1:
 151 007c 0094     		str	r4, [sp]
 152 007e 0246     		mov	r2, r0
 153 0080 0B46     		mov	r3, r1
 154 0082 1748     		ldr	r0, .L16+12
 155 0084 FFF7FEFF 		bl	printf
 156              	.LVL2:
 157              	.L7:
  62:src/main.c    ****         }
  63:src/main.c    **** 
  64:src/main.c    ****     } else if (mode_g == PWM_MODE) {
  65:src/main.c    ****         duty_cycle_g -= 1.0 / swell_time_g;
  66:src/main.c    ****         if (duty_cycle_g <= 0) {
  67:src/main.c    ****             duty_cycle_g = 1;
  68:src/main.c    ****         }
  69:src/main.c    ****         update_pwm_duty_cycle(duty_cycle_g);
  70:src/main.c    ****     }
  71:src/main.c    **** }
 158              		.loc 1 71 1 view .LVU35
 159 0088 02B0     		add	sp, sp, #8
 160              		.cfi_remember_state
 161              		.cfi_def_cfa_offset 16
 162              		@ sp needed
 163 008a BDE83140 		pop	{r0, r4, r5, lr}
 164              		.cfi_restore 14
 165              		.cfi_restore 5
 166              		.cfi_restore 4
 167              		.cfi_restore 0
 168              		.cfi_def_cfa_offset 0
 169 008e 8546     		mov	sp, r0
 170 0090 7047     		bx	lr
 171              	.L8:
 172              		.cfi_restore_state
  64:src/main.c    ****         duty_cycle_g -= 1.0 / swell_time_g;
 173              		.loc 1 64 12 is_stmt 1 view .LVU36
  64:src/main.c    ****         duty_cycle_g -= 1.0 / swell_time_g;
 174              		.loc 1 64 23 is_stmt 0 view .LVU37
 175 0092 1B78     		ldrb	r3, [r3]	@ zero_extendqisi2
  64:src/main.c    ****         duty_cycle_g -= 1.0 / swell_time_g;
 176              		.loc 1 64 15 view .LVU38
 177 0094 012B     		cmp	r3, #1
 178 0096 F7D1     		bne	.L7
  65:src/main.c    ****         if (duty_cycle_g <= 0) {
 179              		.loc 1 65 9 is_stmt 1 view .LVU39
  65:src/main.c    ****         if (duty_cycle_g <= 0) {
 180              		.loc 1 65 29 is_stmt 0 view .LVU40
 181 0098 0F4B     		ldr	r3, .L16+4
 182 009a 93ED017A 		vldr.32	s14, [r3, #4]	@ int
  65:src/main.c    ****         if (duty_cycle_g <= 0) {
 183              		.loc 1 65 22 view .LVU41
 184 009e D3ED027A 		vldr.32	s15, [r3, #8]
  65:src/main.c    ****         if (duty_cycle_g <= 0) {
 185              		.loc 1 65 29 view .LVU42
 186 00a2 B8EE477A 		vcvt.f32.u32	s14, s14
 187 00a6 F7EE006A 		vmov.f32	s13, #1.0e+0
 188 00aa 86EE876A 		vdiv.f32	s12, s13, s14
  65:src/main.c    ****         if (duty_cycle_g <= 0) {
 189              		.loc 1 65 22 view .LVU43
 190 00ae 77EEC67A 		vsub.f32	s15, s15, s12
 191 00b2 C3ED027A 		vstr.32	s15, [r3, #8]
  66:src/main.c    ****             duty_cycle_g = 1;
 192              		.loc 1 66 9 is_stmt 1 view .LVU44
  66:src/main.c    ****             duty_cycle_g = 1;
 193              		.loc 1 66 26 is_stmt 0 view .LVU45
 194 00b6 D3ED027A 		vldr.32	s15, [r3, #8]
  66:src/main.c    ****             duty_cycle_g = 1;
 195              		.loc 1 66 12 view .LVU46
 196 00ba F5EEC07A 		vcmpe.f32	s15, #0
 197 00be F1EE10FA 		vmrs	APSR_nzcv, FPSCR
  67:src/main.c    ****         }
 198              		.loc 1 67 13 is_stmt 1 view .LVU47
  67:src/main.c    ****         }
 199              		.loc 1 67 26 is_stmt 0 view .LVU48
 200 00c2 98BF     		it	ls
 201 00c4 C3ED026A 		vstrls.32	s13, [r3, #8]
  69:src/main.c    ****     }
 202              		.loc 1 69 9 is_stmt 1 view .LVU49
 203 00c8 93ED020A 		vldr.32	s0, [r3, #8]
 204 00cc FFF7FEFF 		bl	update_pwm_duty_cycle
 205              	.LVL3:
 206              		.loc 1 71 1 is_stmt 0 view .LVU50
 207 00d0 DAE7     		b	.L7
 208              	.L17:
 209 00d2 00BF     		.align	2
 210              	.L16:
 211 00d4 00000000 		.word	.LANCHOR0
 212 00d8 00000000 		.word	.LANCHOR1
 213 00dc 00007A44 		.word	1148846080
 214 00e0 00000000 		.word	.LC0
 215              		.cfi_endproc
 216              	.LFE386:
 217              		.size	SysTick_Handler, .-SysTick_Handler
 218              		.section	.rodata.str1.1
 219              	.LC1:
 220 002c 41637469 		.ascii	"Activation du mode PWM !\015\000"
 220      76617469 
 220      6F6E2064 
 220      75206D6F 
 220      64652050 
 221              	.LC2:
 222 0046 41637469 		.ascii	"Activation du mode simple !\015\000"
 222      76617469 
 222      6F6E2064 
 222      75206D6F 
 222      64652073 
 223              	.LC3:
 224 0063 2A2A207C 		.ascii	"** | CHRONO-M0 | PERIODE | **\015\000"
 224      20434852 
 224      4F4E4F2D 
 224      4D30207C 
 224      20504552 
 225              		.text
 226              		.align	1
 227              		.global	EXTI15_10_Handler
 228              		.syntax unified
 229              		.thumb
 230              		.thumb_func
 231              		.fpu fpv4-sp-d16
 232              		.type	EXTI15_10_Handler, %function
 233              	EXTI15_10_Handler:
 234              	.LFB387:
  72:src/main.c    **** 
  73:src/main.c    **** void __attribute__((interrupt)) EXTI15_10_Handler() {
 235              		.loc 1 73 53 is_stmt 1 view -0
 236              		.cfi_startproc
 237              		@ Stack Align: May be called with mis-aligned SP.
 238              		@ args = 0, pretend = 0, frame = 0
 239              		@ frame_needed = 0, uses_anonymous_args = 0
  74:src/main.c    ****     // reset le flag d'interruption
  75:src/main.c    ****     EXTI.PR |= (1 << 13);
 240              		.loc 1 75 5 view .LVU52
  73:src/main.c    ****     // reset le flag d'interruption
 241              		.loc 1 73 53 is_stmt 0 view .LVU53
 242 00e4 6846     		mov	r0, sp
 243              		.cfi_register 13, 0
 244              		.loc 1 75 13 view .LVU54
 245 00e6 134A     		ldr	r2, .L21
  73:src/main.c    ****     // reset le flag d'interruption
 246              		.loc 1 73 53 view .LVU55
 247 00e8 20F00701 		bic	r1, r0, #7
 248 00ec 8D46     		mov	sp, r1
 249 00ee 19B5     		push	{r0, r3, r4, lr}
 250              		.cfi_def_cfa_offset 16
 251              		.cfi_offset 13, -16
 252              		.cfi_offset 3, -12
 253              		.cfi_offset 4, -8
 254              		.cfi_offset 14, -4
 255              		.loc 1 75 13 view .LVU56
 256 00f0 5369     		ldr	r3, [r2, #20]
  76:src/main.c    **** 
  77:src/main.c    ****     // changer de mode d'exécution
  78:src/main.c    ****     if (mode_g == SIMPLE_MODE) {
 257              		.loc 1 78 16 view .LVU57
 258 00f2 114C     		ldr	r4, .L21+4
  75:src/main.c    **** 
 259              		.loc 1 75 13 view .LVU58
 260 00f4 43F40053 		orr	r3, r3, #8192
 261 00f8 5361     		str	r3, [r2, #20]
 262              		.loc 1 78 5 is_stmt 1 view .LVU59
 263              		.loc 1 78 16 is_stmt 0 view .LVU60
 264 00fa 2378     		ldrb	r3, [r4]	@ zero_extendqisi2
 265              		.loc 1 78 8 view .LVU61
 266 00fc 73B9     		cbnz	r3, .L19
  79:src/main.c    ****         printf("Activation du mode PWM !\r\n");
 267              		.loc 1 79 9 is_stmt 1 view .LVU62
 268 00fe 0F48     		ldr	r0, .L21+8
 269 0100 FFF7FEFF 		bl	puts
 270              	.LVL4:
  80:src/main.c    ****         mode_g = PWM_MODE;
 271              		.loc 1 80 9 view .LVU63
 272              		.loc 1 80 16 is_stmt 0 view .LVU64
 273 0104 0123     		movs	r3, #1
  81:src/main.c    ****         led_pwm_init(1000);
 274              		.loc 1 81 9 view .LVU65
 275 0106 4FF47A70 		mov	r0, #1000
  80:src/main.c    ****         mode_g = PWM_MODE;
 276              		.loc 1 80 16 view .LVU66
 277 010a 2370     		strb	r3, [r4]
 278              		.loc 1 81 9 is_stmt 1 view .LVU67
 279 010c FFF7FEFF 		bl	led_pwm_init
 280              	.LVL5:
  82:src/main.c    ****         toggle_pwm_led();
 281              		.loc 1 82 9 view .LVU68
 282 0110 FFF7FEFF 		bl	toggle_pwm_led
 283              	.LVL6:
 284              	.L18:
  83:src/main.c    ****     } else {
  84:src/main.c    ****         printf("Activation du mode simple !\r\n");
  85:src/main.c    ****         printf("** | CHRONO-M0 | PERIODE | **\r\n");
  86:src/main.c    ****         mode_g = SIMPLE_MODE;
  87:src/main.c    ****         led_init();
  88:src/main.c    ****     }
  89:src/main.c    **** }
 285              		.loc 1 89 1 is_stmt 0 view .LVU69
 286 0114 BDE81940 		pop	{r0, r3, r4, lr}
 287              		.cfi_remember_state
 288              		.cfi_restore 14
 289              		.cfi_restore 4
 290              		.cfi_restore 3
 291              		.cfi_restore 0
 292              		.cfi_def_cfa_offset 0
 293 0118 8546     		mov	sp, r0
 294 011a 7047     		bx	lr
 295              	.L19:
 296              		.cfi_restore_state
  84:src/main.c    ****         printf("** | CHRONO-M0 | PERIODE | **\r\n");
 297              		.loc 1 84 9 is_stmt 1 view .LVU70
 298 011c 0848     		ldr	r0, .L21+12
 299 011e FFF7FEFF 		bl	puts
 300              	.LVL7:
  85:src/main.c    ****         mode_g = SIMPLE_MODE;
 301              		.loc 1 85 9 view .LVU71
 302 0122 0848     		ldr	r0, .L21+16
 303 0124 FFF7FEFF 		bl	puts
 304              	.LVL8:
  86:src/main.c    ****         led_init();
 305              		.loc 1 86 9 view .LVU72
  86:src/main.c    ****         led_init();
 306              		.loc 1 86 16 is_stmt 0 view .LVU73
 307 0128 0023     		movs	r3, #0
 308 012a 2370     		strb	r3, [r4]
  87:src/main.c    ****     }
 309              		.loc 1 87 9 is_stmt 1 view .LVU74
 310 012c FFF7FEFF 		bl	led_init
 311              	.LVL9:
 312              		.loc 1 89 1 is_stmt 0 view .LVU75
 313 0130 F0E7     		b	.L18
 314              	.L22:
 315 0132 00BF     		.align	2
 316              	.L21:
 317 0134 00000000 		.word	EXTI
 318 0138 00000000 		.word	.LANCHOR0
 319 013c 2C000000 		.word	.LC1
 320 0140 46000000 		.word	.LC2
 321 0144 63000000 		.word	.LC3
 322              		.cfi_endproc
 323              	.LFE387:
 324              		.size	EXTI15_10_Handler, .-EXTI15_10_Handler
 325              		.align	1
 326              		.global	USART2_Handler
 327              		.syntax unified
 328              		.thumb
 329              		.thumb_func
 330              		.fpu fpv4-sp-d16
 331              		.type	USART2_Handler, %function
 332              	USART2_Handler:
 333              	.LFB388:
  90:src/main.c    **** 
  91:src/main.c    **** void __attribute__((interrupt)) USART2_Handler() {
 334              		.loc 1 91 50 is_stmt 1 view -0
 335              		.cfi_startproc
 336              		@ Stack Align: May be called with mis-aligned SP.
 337              		@ args = 0, pretend = 0, frame = 0
 338              		@ frame_needed = 0, uses_anonymous_args = 0
  92:src/main.c    ****     USART2.SR &= ~(1 << 5);
 339              		.loc 1 92 5 view .LVU77
 340              		.loc 1 92 15 is_stmt 0 view .LVU78
 341 0148 224B     		ldr	r3, .L38
  91:src/main.c    ****     USART2.SR &= ~(1 << 5);
 342              		.loc 1 91 50 view .LVU79
 343 014a 6846     		mov	r0, sp
 344              		.cfi_register 13, 0
 345 014c 20F00701 		bic	r1, r0, #7
 346              		.loc 1 92 15 view .LVU80
 347 0150 1A68     		ldr	r2, [r3]
  91:src/main.c    ****     USART2.SR &= ~(1 << 5);
 348              		.loc 1 91 50 view .LVU81
 349 0152 8D46     		mov	sp, r1
 350 0154 01B5     		push	{r0, lr}
 351              		.cfi_def_cfa_offset 8
 352              		.cfi_offset 13, -8
 353              		.cfi_offset 14, -4
 354              		.loc 1 92 15 view .LVU82
 355 0156 22F02002 		bic	r2, r2, #32
 356 015a 1A60     		str	r2, [r3]
  93:src/main.c    **** 
  94:src/main.c    ****     char c = (char) USART2.DR;
 357              		.loc 1 94 5 is_stmt 1 view .LVU83
 358              		.loc 1 94 27 is_stmt 0 view .LVU84
 359 015c 5A68     		ldr	r2, [r3, #4]
  95:src/main.c    ****     if (mode_g == SIMPLE_MODE) {
 360              		.loc 1 95 16 view .LVU85
 361 015e 1E4B     		ldr	r3, .L38+4
 362 0160 1978     		ldrb	r1, [r3]	@ zero_extendqisi2
 363 0162 1E4B     		ldr	r3, .L38+8
  94:src/main.c    ****     if (mode_g == SIMPLE_MODE) {
 364              		.loc 1 94 10 view .LVU86
 365 0164 D2B2     		uxtb	r2, r2
 366              	.LVL10:
 367              		.loc 1 95 5 is_stmt 1 view .LVU87
 368              		.loc 1 95 8 is_stmt 0 view .LVU88
 369 0166 E1B9     		cbnz	r1, .L24
  96:src/main.c    ****         if (c == '+') {
 370              		.loc 1 96 9 is_stmt 1 view .LVU89
 371              		.loc 1 96 12 is_stmt 0 view .LVU90
 372 0168 2B2A     		cmp	r2, #43
 373 016a 0FD1     		bne	.L25
  97:src/main.c    ****             max_ms_g += 100;
 374              		.loc 1 97 13 is_stmt 1 view .LVU91
 375              		.loc 1 97 22 is_stmt 0 view .LVU92
 376 016c 1A88     		ldrh	r2, [r3]
 377              	.LVL11:
 378              		.loc 1 97 22 view .LVU93
 379 016e 6432     		adds	r2, r2, #100
 380              	.L34:
  98:src/main.c    ****         } else if (c == '-') {
  99:src/main.c    ****             max_ms_g -= 100;
 381              		.loc 1 99 22 view .LVU94
 382 0170 92B2     		uxth	r2, r2
 383 0172 1A80     		strh	r2, [r3]	@ movhi
 384              	.L26:
 100:src/main.c    ****         }
 101:src/main.c    ****         // apply limits: max_ms_g in [2^0, 2^12]
 102:src/main.c    ****         if (max_ms_g > 4096) {
 385              		.loc 1 102 9 is_stmt 1 view .LVU95
 386              		.loc 1 102 22 is_stmt 0 view .LVU96
 387 0174 1A88     		ldrh	r2, [r3]
 388 0176 92B2     		uxth	r2, r2
 389              		.loc 1 102 12 view .LVU97
 390 0178 B2F5805F 		cmp	r2, #4096
 391 017c 0BD9     		bls	.L27
 103:src/main.c    ****             max_ms_g = 4096;
 392              		.loc 1 103 13 is_stmt 1 view .LVU98
 393              		.loc 1 103 22 is_stmt 0 view .LVU99
 394 017e 4FF48052 		mov	r2, #4096
 395              	.L36:
 104:src/main.c    ****         } else if (max_ms_g < 1) {
 105:src/main.c    ****             max_ms_g = 1;
 396              		.loc 1 105 22 view .LVU100
 397 0182 1A80     		strh	r2, [r3]	@ movhi
 398              	.L23:
 106:src/main.c    ****         }
 107:src/main.c    ****         
 108:src/main.c    ****     } else {
 109:src/main.c    ****         if (c == '+') {
 110:src/main.c    ****             swell_time_g += 100;
 111:src/main.c    ****         } else if (c == '-') {
 112:src/main.c    ****             swell_time_g -= 100;
 113:src/main.c    ****         }
 114:src/main.c    ****         // apply limits: swell_time_g in [1*1000, 10*1000]
 115:src/main.c    ****         if (swell_time_g > 10000) {
 116:src/main.c    ****             swell_time_g = 10000;
 117:src/main.c    ****         } else if (swell_time_g < 1000) {
 118:src/main.c    ****             swell_time_g = 1000;
 119:src/main.c    ****         }
 120:src/main.c    ****     }
 121:src/main.c    **** }
 399              		.loc 1 121 1 view .LVU101
 400 0184 BDE80140 		pop	{r0, lr}
 401              		.cfi_remember_state
 402              		.cfi_restore 14
 403              		.cfi_restore 0
 404              		.cfi_def_cfa_offset 0
 405 0188 8546     		mov	sp, r0
 406 018a 7047     		bx	lr
 407              	.LVL12:
 408              	.L25:
 409              		.cfi_restore_state
  98:src/main.c    ****             max_ms_g -= 100;
 410              		.loc 1 98 16 is_stmt 1 view .LVU102
  98:src/main.c    ****             max_ms_g -= 100;
 411              		.loc 1 98 19 is_stmt 0 view .LVU103
 412 018c 2D2A     		cmp	r2, #45
 413 018e F1D1     		bne	.L26
  99:src/main.c    ****         }
 414              		.loc 1 99 13 is_stmt 1 view .LVU104
  99:src/main.c    ****         }
 415              		.loc 1 99 22 is_stmt 0 view .LVU105
 416 0190 1A88     		ldrh	r2, [r3]
 417              	.LVL13:
  99:src/main.c    ****         }
 418              		.loc 1 99 22 view .LVU106
 419 0192 643A     		subs	r2, r2, #100
 420 0194 ECE7     		b	.L34
 421              	.L27:
 104:src/main.c    ****             max_ms_g = 1;
 422              		.loc 1 104 16 is_stmt 1 view .LVU107
 104:src/main.c    ****             max_ms_g = 1;
 423              		.loc 1 104 29 is_stmt 0 view .LVU108
 424 0196 1A88     		ldrh	r2, [r3]
 425 0198 92B2     		uxth	r2, r2
 104:src/main.c    ****             max_ms_g = 1;
 426              		.loc 1 104 19 view .LVU109
 427 019a 002A     		cmp	r2, #0
 428 019c F2D1     		bne	.L23
 105:src/main.c    ****         }
 429              		.loc 1 105 13 is_stmt 1 view .LVU110
 105:src/main.c    ****         }
 430              		.loc 1 105 22 is_stmt 0 view .LVU111
 431 019e 0122     		movs	r2, #1
 432 01a0 EFE7     		b	.L36
 433              	.LVL14:
 434              	.L24:
 109:src/main.c    ****             swell_time_g += 100;
 435              		.loc 1 109 9 is_stmt 1 view .LVU112
 109:src/main.c    ****             swell_time_g += 100;
 436              		.loc 1 109 12 is_stmt 0 view .LVU113
 437 01a2 2B2A     		cmp	r2, #43
 438 01a4 09D1     		bne	.L30
 110:src/main.c    ****         } else if (c == '-') {
 439              		.loc 1 110 13 is_stmt 1 view .LVU114
 110:src/main.c    ****         } else if (c == '-') {
 440              		.loc 1 110 26 is_stmt 0 view .LVU115
 441 01a6 5A68     		ldr	r2, [r3, #4]
 442              	.LVL15:
 110:src/main.c    ****         } else if (c == '-') {
 443              		.loc 1 110 26 view .LVU116
 444 01a8 6432     		adds	r2, r2, #100
 445              	.L35:
 112:src/main.c    ****         }
 446              		.loc 1 112 26 view .LVU117
 447 01aa 5A60     		str	r2, [r3, #4]
 448              	.L31:
 115:src/main.c    ****             swell_time_g = 10000;
 449              		.loc 1 115 9 is_stmt 1 view .LVU118
 115:src/main.c    ****             swell_time_g = 10000;
 450              		.loc 1 115 26 is_stmt 0 view .LVU119
 451 01ac 5968     		ldr	r1, [r3, #4]
 115:src/main.c    ****             swell_time_g = 10000;
 452              		.loc 1 115 12 view .LVU120
 453 01ae 42F21072 		movw	r2, #10000
 454 01b2 9142     		cmp	r1, r2
 455 01b4 06D9     		bls	.L32
 456              	.L37:
 118:src/main.c    ****         }
 457              		.loc 1 118 26 view .LVU121
 458 01b6 5A60     		str	r2, [r3, #4]
 459              		.loc 1 121 1 view .LVU122
 460 01b8 E4E7     		b	.L23
 461              	.LVL16:
 462              	.L30:
 111:src/main.c    ****             swell_time_g -= 100;
 463              		.loc 1 111 16 is_stmt 1 view .LVU123
 111:src/main.c    ****             swell_time_g -= 100;
 464              		.loc 1 111 19 is_stmt 0 view .LVU124
 465 01ba 2D2A     		cmp	r2, #45
 466 01bc F6D1     		bne	.L31
 112:src/main.c    ****         }
 467              		.loc 1 112 13 is_stmt 1 view .LVU125
 112:src/main.c    ****         }
 468              		.loc 1 112 26 is_stmt 0 view .LVU126
 469 01be 5A68     		ldr	r2, [r3, #4]
 470              	.LVL17:
 112:src/main.c    ****         }
 471              		.loc 1 112 26 view .LVU127
 472 01c0 643A     		subs	r2, r2, #100
 473 01c2 F2E7     		b	.L35
 474              	.L32:
 117:src/main.c    ****             swell_time_g = 1000;
 475              		.loc 1 117 16 is_stmt 1 view .LVU128
 117:src/main.c    ****             swell_time_g = 1000;
 476              		.loc 1 117 33 is_stmt 0 view .LVU129
 477 01c4 5A68     		ldr	r2, [r3, #4]
 117:src/main.c    ****             swell_time_g = 1000;
 478              		.loc 1 117 19 view .LVU130
 479 01c6 B2F57A7F 		cmp	r2, #1000
 480 01ca DBD2     		bcs	.L23
 118:src/main.c    ****         }
 481              		.loc 1 118 13 is_stmt 1 view .LVU131
 118:src/main.c    ****         }
 482              		.loc 1 118 26 is_stmt 0 view .LVU132
 483 01cc 4FF47A72 		mov	r2, #1000
 484 01d0 F1E7     		b	.L37
 485              	.L39:
 486 01d2 00BF     		.align	2
 487              	.L38:
 488 01d4 00000000 		.word	USART2
 489 01d8 00000000 		.word	.LANCHOR0
 490 01dc 00000000 		.word	.LANCHOR1
 491              		.cfi_endproc
 492              	.LFE388:
 493              		.size	USART2_Handler, .-USART2_Handler
 494              		.section	.rodata.str1.1
 495              	.LC4:
 496 0082 2A2A207C 		.ascii	"** | CHRONO-M0 | PERIODE | **\012\015\000"
 496      20434852 
 496      4F4E4F2D 
 496      4D30207C 
 496      20504552 
 497              	.LC5:
 498 00a2 20202020 		.ascii	"         %d ms       %5d\015\000"
 498      20202020 
 498      20256420 
 498      6D732020 
 498      20202020 
 499              		.section	.text.startup,"ax",%progbits
 500              		.align	1
 501              		.global	main
 502              		.syntax unified
 503              		.thumb
 504              		.thumb_func
 505              		.fpu fpv4-sp-d16
 506              		.type	main, %function
 507              	main:
 508              	.LFB389:
 122:src/main.c    **** 
 123:src/main.c    **** /*****************************************************************************/
 124:src/main.c    **** /*                                    MAIN                                   */
 125:src/main.c    **** /*****************************************************************************/
 126:src/main.c    **** int main(void) {
 509              		.loc 1 126 16 is_stmt 1 view -0
 510              		.cfi_startproc
 511              		@ args = 0, pretend = 0, frame = 0
 512              		@ frame_needed = 0, uses_anonymous_args = 0
 127:src/main.c    **** 
 128:src/main.c    ****     enable_GPIOA();  // PA5 => LED
 513              		.loc 1 128 5 view .LVU134
 514              	.LBB27:
 515              	.LBI27:
 516              		.file 2 "src/sys/devices.h"
   1:src/sys/devices.h **** #ifndef __IO_H
   2:src/sys/devices.h **** #define __IO_H
   3:src/sys/devices.h **** 
   4:src/sys/devices.h **** #include<stdint.h>
   5:src/sys/devices.h **** #include "cm4.h"
   6:src/sys/devices.h **** 
   7:src/sys/devices.h **** #define __reserved(offset) \
   8:src/sys/devices.h ****   uint32_t _reserved_ ## offset
   9:src/sys/devices.h **** 
  10:src/sys/devices.h **** #define __reserved_interval(offset1,offset2) \
  11:src/sys/devices.h ****   uint32_t _reserved_ ## offset1 ## _ ## offset2[((offset2)-(offset1))/4]
  12:src/sys/devices.h **** 
  13:src/sys/devices.h **** /* PM §4.2.10 */ 
  14:src/sys/devices.h **** struct MPU_registers {
  15:src/sys/devices.h ****   uint32_t TYPER;
  16:src/sys/devices.h ****   uint32_t CTRL;
  17:src/sys/devices.h ****   uint32_t RNR;
  18:src/sys/devices.h ****   uint32_t RBAR;
  19:src/sys/devices.h ****   uint32_t RASR;
  20:src/sys/devices.h ****   uint32_t RBAR_A1;
  21:src/sys/devices.h ****   uint32_t RASR_A1;
  22:src/sys/devices.h ****   uint32_t RBAR_A2;
  23:src/sys/devices.h ****   uint32_t RASR_A2;
  24:src/sys/devices.h ****   uint32_t RBAR_A3;
  25:src/sys/devices.h ****   uint32_t RASR_A3;
  26:src/sys/devices.h **** };
  27:src/sys/devices.h **** 
  28:src/sys/devices.h **** /* PM §4.3.11 */ 
  29:src/sys/devices.h **** struct NVIC_registers {
  30:src/sys/devices.h ****   uint32_t ISER[3];
  31:src/sys/devices.h ****   __reserved_interval(0x0c,0x80);
  32:src/sys/devices.h ****   uint32_t ICER[3];
  33:src/sys/devices.h ****   __reserved_interval(0x8c,0x100);
  34:src/sys/devices.h ****   uint32_t ISPR[3];
  35:src/sys/devices.h ****   __reserved_interval(0x10c,0x180);
  36:src/sys/devices.h ****   uint32_t ICPR[3];
  37:src/sys/devices.h ****   __reserved_interval(0x18c,0x200);
  38:src/sys/devices.h ****   uint32_t IABR[3];
  39:src/sys/devices.h ****   __reserved_interval(0x20c,0x300);
  40:src/sys/devices.h ****   uint8_t  IP[81];
  41:src/sys/devices.h ****   uint8_t _reserved_bytes[3];
  42:src/sys/devices.h **** };
  43:src/sys/devices.h **** 
  44:src/sys/devices.h **** /* PM §4.4.19 */ 
  45:src/sys/devices.h **** struct SCB_registers {
  46:src/sys/devices.h ****   uint32_t CPUID;
  47:src/sys/devices.h ****   uint32_t ICSR;
  48:src/sys/devices.h ****   uint32_t VTOR;
  49:src/sys/devices.h ****   uint32_t AIRCR;
  50:src/sys/devices.h ****   uint32_t SCR;
  51:src/sys/devices.h ****   uint32_t CCR;
  52:src/sys/devices.h ****   uint32_t SHPR1;
  53:src/sys/devices.h ****   uint32_t SHPR2;
  54:src/sys/devices.h ****   uint32_t SHPR3;
  55:src/sys/devices.h ****   uint32_t SHCRS;
  56:src/sys/devices.h ****   uint32_t CFSR;
  57:src/sys/devices.h ****   uint32_t HFSR;
  58:src/sys/devices.h ****   uint32_t MMAR;
  59:src/sys/devices.h ****   uint32_t BFAR;
  60:src/sys/devices.h ****   uint32_t AFSR;
  61:src/sys/devices.h **** };
  62:src/sys/devices.h **** 
  63:src/sys/devices.h **** /* PM §4.5.6 */ 
  64:src/sys/devices.h **** struct STK_registers {
  65:src/sys/devices.h ****   uint32_t CTRL;
  66:src/sys/devices.h ****   uint32_t LOAD;
  67:src/sys/devices.h ****   uint32_t VAL;
  68:src/sys/devices.h ****   uint32_t CALIB;
  69:src/sys/devices.h **** };
  70:src/sys/devices.h **** 
  71:src/sys/devices.h **** /* PM §4.6 */ 
  72:src/sys/devices.h **** struct FPU_registers {
  73:src/sys/devices.h ****   __reserved(0x0);
  74:src/sys/devices.h ****   uint32_t CCR;
  75:src/sys/devices.h ****   uint32_t CAR;
  76:src/sys/devices.h ****   uint32_t DSCR;
  77:src/sys/devices.h **** };
  78:src/sys/devices.h **** 
  79:src/sys/devices.h **** 
  80:src/sys/devices.h **** /* RM §3.6.7 */ 
  81:src/sys/devices.h **** struct FLASH_registers {
  82:src/sys/devices.h ****   uint32_t ACR;
  83:src/sys/devices.h ****   uint32_t KEYR;
  84:src/sys/devices.h ****   uint32_t OPTKEYR;
  85:src/sys/devices.h ****   uint32_t SR;
  86:src/sys/devices.h ****   uint32_t CR;
  87:src/sys/devices.h ****   uint32_t OPTCR;  
  88:src/sys/devices.h **** };
  89:src/sys/devices.h **** 
  90:src/sys/devices.h **** /* RM §4.4.4 */
  91:src/sys/devices.h **** struct CRC_registers {
  92:src/sys/devices.h ****   uint32_t DR;
  93:src/sys/devices.h ****   uint32_t ICR;
  94:src/sys/devices.h ****   uint32_t CR;
  95:src/sys/devices.h **** };
  96:src/sys/devices.h **** 
  97:src/sys/devices.h **** /* RM §5.5 */
  98:src/sys/devices.h **** struct PWR_registers {
  99:src/sys/devices.h ****   uint32_t CR;
 100:src/sys/devices.h ****   uint32_t CSR;
 101:src/sys/devices.h **** };
 102:src/sys/devices.h **** 
 103:src/sys/devices.h **** /* RM §6.3.28 */
 104:src/sys/devices.h **** struct RCC_registers {
 105:src/sys/devices.h ****   uint32_t CR;
 106:src/sys/devices.h ****   uint32_t PLLCFGR;
 107:src/sys/devices.h ****   uint32_t CFGR;
 108:src/sys/devices.h ****   uint32_t CIR;
 109:src/sys/devices.h ****   uint32_t AHB1RSTR;
 110:src/sys/devices.h ****   uint32_t AHB2RSTR;
 111:src/sys/devices.h ****   uint32_t AHB3RSTR;
 112:src/sys/devices.h ****   __reserved(0x1c);
 113:src/sys/devices.h ****   uint32_t APB1RSTR;
 114:src/sys/devices.h ****   uint32_t APB2RSTR;
 115:src/sys/devices.h ****   __reserved(0x28);
 116:src/sys/devices.h ****   __reserved(0x2c);
 117:src/sys/devices.h ****   uint32_t AHB1ENR;
 118:src/sys/devices.h ****   uint32_t AHB2ENR;
 119:src/sys/devices.h ****   uint32_t AHB3ENR;
 120:src/sys/devices.h ****   __reserved(0x3c);
 121:src/sys/devices.h ****   uint32_t APB1ENR;
 122:src/sys/devices.h ****   uint32_t APB2ENR;
 123:src/sys/devices.h ****   __reserved(0x48);
 124:src/sys/devices.h ****   __reserved(0x4c);
 125:src/sys/devices.h ****   uint32_t AHB1LPENR;
 126:src/sys/devices.h ****   uint32_t AHB2LPENR;
 127:src/sys/devices.h ****   uint32_t AHB3LPENR;
 128:src/sys/devices.h ****   __reserved(0x5c);
 129:src/sys/devices.h ****   uint32_t APB1LPENR;
 130:src/sys/devices.h ****   uint32_t APB2LPENR;
 131:src/sys/devices.h ****   __reserved(0x68);
 132:src/sys/devices.h ****   __reserved(0x6c);
 133:src/sys/devices.h ****   uint32_t BDCR;
 134:src/sys/devices.h ****   uint32_t CSR;
 135:src/sys/devices.h ****   __reserved(0x78);
 136:src/sys/devices.h ****   __reserved(0x7c);
 137:src/sys/devices.h ****   uint32_t SSCGR;
 138:src/sys/devices.h ****   uint32_t PLLI2SCFGR;
 139:src/sys/devices.h ****   uint32_t PLLSAICFGR;
 140:src/sys/devices.h ****   uint32_t DCKCFGR;
 141:src/sys/devices.h ****   uint32_t CKGATENR;
 142:src/sys/devices.h ****   uint32_t DCKCFGR2;
 143:src/sys/devices.h **** };
 144:src/sys/devices.h **** 
 145:src/sys/devices.h **** /* RM §7.4.11 */
 146:src/sys/devices.h **** struct GPIO_registers {
 147:src/sys/devices.h ****   uint32_t MODER;
 148:src/sys/devices.h ****   uint32_t OTYPER;
 149:src/sys/devices.h ****   uint32_t OSPEEDR;
 150:src/sys/devices.h ****   uint32_t PUPDR;
 151:src/sys/devices.h ****   uint32_t IDR;
 152:src/sys/devices.h ****   uint32_t ODR;
 153:src/sys/devices.h ****   uint32_t BSRR;
 154:src/sys/devices.h ****   uint32_t LCKR;
 155:src/sys/devices.h ****   uint32_t AFRL;
 156:src/sys/devices.h ****   uint32_t AFRH;
 157:src/sys/devices.h **** };
 158:src/sys/devices.h **** 
 159:src/sys/devices.h **** /* RM §8.2.9 */
 160:src/sys/devices.h **** struct SYSCFG_registers {
 161:src/sys/devices.h ****   uint32_t MEMRMP;
 162:src/sys/devices.h ****   uint32_t PMC;
 163:src/sys/devices.h ****   uint32_t EXTICR1;
 164:src/sys/devices.h ****   uint32_t EXTICR2;
 165:src/sys/devices.h ****   uint32_t EXTICR3;
 166:src/sys/devices.h ****   uint32_t EXTICR4;
 167:src/sys/devices.h ****   __reserved(0x18);
 168:src/sys/devices.h ****   __reserved(0x1c);
 169:src/sys/devices.h ****   uint32_t CMPCR;
 170:src/sys/devices.h ****   __reserved(0x24);
 171:src/sys/devices.h ****   __reserved(0x28);
 172:src/sys/devices.h ****   uint32_t CFGR;
 173:src/sys/devices.h **** };
 174:src/sys/devices.h **** 
 175:src/sys/devices.h **** /* RM §9.5.11 */
 176:src/sys/devices.h **** struct DMA_Sx_registers {
 177:src/sys/devices.h ****   uint32_t CR;
 178:src/sys/devices.h ****   uint32_t NDTR;
 179:src/sys/devices.h ****   void* PAR;
 180:src/sys/devices.h ****   void* M0AR;
 181:src/sys/devices.h ****   void* M1AR;
 182:src/sys/devices.h ****   uint32_t FCR;
 183:src/sys/devices.h **** };
 184:src/sys/devices.h **** struct DMA_registers {
 185:src/sys/devices.h ****   uint32_t LISR;
 186:src/sys/devices.h ****   uint32_t HISR;
 187:src/sys/devices.h ****   uint32_t LIFCR;
 188:src/sys/devices.h ****   uint32_t HIFCR;
 189:src/sys/devices.h ****   struct DMA_Sx_registers S[8];
 190:src/sys/devices.h **** };
 191:src/sys/devices.h **** 
 192:src/sys/devices.h **** /* RM §10.3.7 */
 193:src/sys/devices.h **** struct EXTI_registers {
 194:src/sys/devices.h ****   uint32_t IMR;
 195:src/sys/devices.h ****   uint32_t EMR;
 196:src/sys/devices.h ****   uint32_t RTSR;
 197:src/sys/devices.h ****   uint32_t FTSR;
 198:src/sys/devices.h ****   uint32_t SWIER;
 199:src/sys/devices.h ****   uint32_t PR;
 200:src/sys/devices.h **** };
 201:src/sys/devices.h **** 
 202:src/sys/devices.h **** /* RM §11.8 */
 203:src/sys/devices.h **** struct FMC_registers {
 204:src/sys/devices.h ****   uint32_t BCR1;
 205:src/sys/devices.h ****   uint32_t BCR2;
 206:src/sys/devices.h ****   uint32_t BCR3;
 207:src/sys/devices.h ****   uint32_t BCR4;
 208:src/sys/devices.h ****   uint32_t BTR1;
 209:src/sys/devices.h ****   uint32_t BTR2;
 210:src/sys/devices.h ****   uint32_t BTR3;
 211:src/sys/devices.h ****   uint32_t BTR4;
 212:src/sys/devices.h ****   uint32_t BWTR1;
 213:src/sys/devices.h ****   uint32_t BWTR2;
 214:src/sys/devices.h ****   uint32_t BWTR3;
 215:src/sys/devices.h ****   uint32_t BWTR4;
 216:src/sys/devices.h ****   uint32_t PCR;
 217:src/sys/devices.h ****   uint32_t SR;
 218:src/sys/devices.h ****   uint32_t PMEM;
 219:src/sys/devices.h ****   uint32_t PATT;
 220:src/sys/devices.h ****   uint32_t ECCR;
 221:src/sys/devices.h ****   uint32_t SDCR1;
 222:src/sys/devices.h ****   uint32_t SDCR2;
 223:src/sys/devices.h ****   uint32_t SDTR1;
 224:src/sys/devices.h ****   uint32_t SDTR2;
 225:src/sys/devices.h ****   uint32_t SDCMR;
 226:src/sys/devices.h ****   uint32_t SDRTR;
 227:src/sys/devices.h ****   uint32_t SDSR;
 228:src/sys/devices.h **** };
 229:src/sys/devices.h **** 
 230:src/sys/devices.h **** /* RM §12.5.14 */
 231:src/sys/devices.h **** struct QUADSPI_registers {
 232:src/sys/devices.h ****   uint32_t CR;
 233:src/sys/devices.h ****   uint32_t DCR;
 234:src/sys/devices.h ****   uint32_t SR;
 235:src/sys/devices.h ****   uint32_t FCR;
 236:src/sys/devices.h ****   uint32_t DLR;
 237:src/sys/devices.h ****   uint32_t CCR;
 238:src/sys/devices.h ****   uint32_t AR;
 239:src/sys/devices.h ****   uint32_t ABR;
 240:src/sys/devices.h ****   uint32_t DR;
 241:src/sys/devices.h ****   uint32_t PSMKR;
 242:src/sys/devices.h ****   uint32_t PSMAR;
 243:src/sys/devices.h ****   uint32_t PIR;
 244:src/sys/devices.h ****   uint32_t LPTR;
 245:src/sys/devices.h **** };
 246:src/sys/devices.h **** 
 247:src/sys/devices.h **** /* RM §13.13.18 */
 248:src/sys/devices.h **** struct ADCx_registers {
 249:src/sys/devices.h ****   uint32_t SR;
 250:src/sys/devices.h ****   uint32_t CR1;
 251:src/sys/devices.h ****   uint32_t CR2;
 252:src/sys/devices.h ****   uint32_t SMPR1;
 253:src/sys/devices.h ****   uint32_t SMPR2;
 254:src/sys/devices.h ****   uint32_t JOFR1;
 255:src/sys/devices.h ****   uint32_t JOFR2;
 256:src/sys/devices.h ****   uint32_t JOFR3;
 257:src/sys/devices.h ****   uint32_t JOFR4;
 258:src/sys/devices.h ****   uint32_t HTR;
 259:src/sys/devices.h ****   uint32_t LTR;
 260:src/sys/devices.h ****   uint32_t SQR1;
 261:src/sys/devices.h ****   uint32_t SQR2;
 262:src/sys/devices.h ****   uint32_t SQR3;
 263:src/sys/devices.h ****   uint32_t JSQR;
 264:src/sys/devices.h ****   uint32_t JDR1;
 265:src/sys/devices.h ****   uint32_t JDR2;
 266:src/sys/devices.h ****   uint32_t JDR3;
 267:src/sys/devices.h ****   uint32_t JDR4;
 268:src/sys/devices.h ****   uint32_t DR;
 269:src/sys/devices.h **** };
 270:src/sys/devices.h **** 
 271:src/sys/devices.h **** struct ADC_common_registers {
 272:src/sys/devices.h ****   uint32_t CSR;
 273:src/sys/devices.h ****   uint32_t CCR;
 274:src/sys/devices.h ****   uint32_t CDR;
 275:src/sys/devices.h **** };
 276:src/sys/devices.h **** 
 277:src/sys/devices.h **** 
 278:src/sys/devices.h **** /* RM §14.5.15 */
 279:src/sys/devices.h **** struct DAC_registers {
 280:src/sys/devices.h ****   uint32_t CR;
 281:src/sys/devices.h ****   uint32_t SWTRIGR;
 282:src/sys/devices.h ****   uint32_t DHR12R1;
 283:src/sys/devices.h ****   uint32_t DHR12L1;
 284:src/sys/devices.h ****   uint32_t DHR8R1;
 285:src/sys/devices.h ****   uint32_t DHR12R2;
 286:src/sys/devices.h ****   uint32_t DHR12L2;
 287:src/sys/devices.h ****   uint32_t DHR8R2;
 288:src/sys/devices.h ****   uint32_t DHR12RD;
 289:src/sys/devices.h ****   uint32_t DHR12LD;
 290:src/sys/devices.h ****   uint32_t DHR8RD;
 291:src/sys/devices.h ****   uint32_t DOR1;
 292:src/sys/devices.h ****   uint32_t DOR2;
 293:src/sys/devices.h ****   uint32_t SR;
 294:src/sys/devices.h **** };
 295:src/sys/devices.h **** 
 296:src/sys/devices.h **** /* RM §15.8.12 */
 297:src/sys/devices.h **** struct DCMI_registers {
 298:src/sys/devices.h ****   uint32_t CR;
 299:src/sys/devices.h ****   uint32_t SR;
 300:src/sys/devices.h ****   uint32_t RIS;
 301:src/sys/devices.h ****   uint32_t IER;
 302:src/sys/devices.h ****   uint32_t MIS;
 303:src/sys/devices.h ****   uint32_t ICR;
 304:src/sys/devices.h ****   uint32_t ESCR;
 305:src/sys/devices.h ****   uint32_t ESUR;
 306:src/sys/devices.h ****   uint32_t CWSTRT;
 307:src/sys/devices.h ****   uint32_t CWSIZE;
 308:src/sys/devices.h ****   uint32_t DR;
 309:src/sys/devices.h **** };
 310:src/sys/devices.h **** 
 311:src/sys/devices.h **** /* RM §16.4.21 TIM1,8 */
 312:src/sys/devices.h **** /* RM §17.4.21 TIM2,3,4,5 */
 313:src/sys/devices.h **** /* RM §18.4.13 TIM9,12 */
 314:src/sys/devices.h **** /* RM §18.5.1  TIM10,11,13,14 */
 315:src/sys/devices.h **** /* RM §19.4.9  TIM6,7 */
 316:src/sys/devices.h **** struct TIMx_registers {
 317:src/sys/devices.h ****   uint32_t CR1;
 318:src/sys/devices.h ****   uint32_t CR2;
 319:src/sys/devices.h ****   uint32_t SMCR;
 320:src/sys/devices.h ****   uint32_t DIER;
 321:src/sys/devices.h ****   uint32_t SR;
 322:src/sys/devices.h ****   uint32_t EGR;
 323:src/sys/devices.h ****   uint32_t CCMR1;
 324:src/sys/devices.h ****   uint32_t CCMR2;
 325:src/sys/devices.h ****   uint32_t CCER;
 326:src/sys/devices.h ****   uint32_t CNT;
 327:src/sys/devices.h ****   uint32_t PSC;
 328:src/sys/devices.h ****   uint32_t ARR;
 329:src/sys/devices.h ****   uint32_t RCR;
 330:src/sys/devices.h ****   uint32_t CCR1;
 331:src/sys/devices.h ****   uint32_t CCR2;
 332:src/sys/devices.h ****   uint32_t CCR3;
 333:src/sys/devices.h ****   uint32_t CCR4;
 334:src/sys/devices.h ****   uint32_t BDTR;
 335:src/sys/devices.h ****   uint32_t DCR;
 336:src/sys/devices.h ****   uint32_t DMAR;
 337:src/sys/devices.h ****   uint32_t OR;
 338:src/sys/devices.h **** };
 339:src/sys/devices.h **** 
 340:src/sys/devices.h **** /* RM §20.4.5 */
 341:src/sys/devices.h **** struct IWDG_registers {
 342:src/sys/devices.h ****   uint32_t KR;
 343:src/sys/devices.h ****   uint32_t PR;
 344:src/sys/devices.h ****   uint32_t RLR;
 345:src/sys/devices.h ****   uint32_t SR;
 346:src/sys/devices.h **** };
 347:src/sys/devices.h **** 
 348:src/sys/devices.h **** /* RM §21.6.4 */
 349:src/sys/devices.h **** struct WWDG_registers {
 350:src/sys/devices.h ****   uint32_t CR;
 351:src/sys/devices.h ****   uint32_t CFR;
 352:src/sys/devices.h ****   uint32_t SR;
 353:src/sys/devices.h **** };
 354:src/sys/devices.h **** 
 355:src/sys/devices.h **** /* RM §22.6.21 */
 356:src/sys/devices.h **** struct RTC_registers {
 357:src/sys/devices.h ****   uint32_t TR;
 358:src/sys/devices.h ****   uint32_t DR;
 359:src/sys/devices.h ****   uint32_t CR;
 360:src/sys/devices.h ****   uint32_t ISR;
 361:src/sys/devices.h ****   uint32_t PRER;
 362:src/sys/devices.h ****   uint32_t WUTR;
 363:src/sys/devices.h ****   uint32_t CALIBR;
 364:src/sys/devices.h ****   uint32_t ALRMAR;
 365:src/sys/devices.h ****   uint32_t ALRMBR;
 366:src/sys/devices.h ****   uint32_t WPR;
 367:src/sys/devices.h ****   uint32_t SSR;
 368:src/sys/devices.h ****   uint32_t SHIFTR;
 369:src/sys/devices.h ****   uint32_t TSTR;
 370:src/sys/devices.h ****   uint32_t TSSSR;
 371:src/sys/devices.h ****   uint32_t CALR;
 372:src/sys/devices.h ****   uint32_t TAFCR;
 373:src/sys/devices.h ****   uint32_t ALRMASSR;
 374:src/sys/devices.h ****   uint32_t ALRMBSSR;
 375:src/sys/devices.h ****   uint32_t BKPR[20];
 376:src/sys/devices.h **** };
 377:src/sys/devices.h **** 
 378:src/sys/devices.h **** /* RM §23.7.12 */
 379:src/sys/devices.h **** struct FMPI2C_registers {
 380:src/sys/devices.h ****   uint32_t CR1;
 381:src/sys/devices.h ****   uint32_t CR2;
 382:src/sys/devices.h ****   uint32_t OAR1;
 383:src/sys/devices.h ****   uint32_t OAR2;
 384:src/sys/devices.h ****   uint32_t TIMINGR;
 385:src/sys/devices.h ****   uint32_t TIMEOUTR;
 386:src/sys/devices.h ****   uint32_t ISR;
 387:src/sys/devices.h ****   uint32_t ICR;
 388:src/sys/devices.h ****   uint32_t PECR;
 389:src/sys/devices.h ****   uint32_t RXDR;
 390:src/sys/devices.h ****   uint32_t TXDR;
 391:src/sys/devices.h **** };
 392:src/sys/devices.h **** 
 393:src/sys/devices.h **** /* RM §24.6.14 */
 394:src/sys/devices.h **** struct I2C_registers {
 395:src/sys/devices.h ****   uint32_t CR1;
 396:src/sys/devices.h ****   uint32_t CR2;
 397:src/sys/devices.h ****   uint32_t OAR1;
 398:src/sys/devices.h ****   uint32_t OAR2;
 399:src/sys/devices.h ****   uint32_t DR;
 400:src/sys/devices.h ****   uint32_t SR1;
 401:src/sys/devices.h ****   uint32_t SR2;
 402:src/sys/devices.h ****   uint32_t CCR;
 403:src/sys/devices.h ****   uint32_t TRISE;
 404:src/sys/devices.h ****   uint32_t FLTR;
 405:src/sys/devices.h **** };
 406:src/sys/devices.h **** 
 407:src/sys/devices.h **** /* RM §25.6.8 */
 408:src/sys/devices.h **** struct USART_registers {
 409:src/sys/devices.h ****   uint32_t SR;
 410:src/sys/devices.h ****   uint32_t DR;
 411:src/sys/devices.h ****   uint32_t BRR;
 412:src/sys/devices.h ****   uint32_t CR1;
 413:src/sys/devices.h ****   uint32_t CR2;
 414:src/sys/devices.h ****   uint32_t CR3;
 415:src/sys/devices.h ****   uint32_t GTPR;
 416:src/sys/devices.h **** };
 417:src/sys/devices.h **** 
 418:src/sys/devices.h **** /* RM §26.7.10 */
 419:src/sys/devices.h **** struct SPI_I2S_registers {
 420:src/sys/devices.h ****   uint32_t CR1;
 421:src/sys/devices.h ****   uint32_t CR2;
 422:src/sys/devices.h ****   uint32_t SR;
 423:src/sys/devices.h ****   uint32_t DR;
 424:src/sys/devices.h ****   uint32_t CRCPR;
 425:src/sys/devices.h ****   uint32_t RXCRCR;
 426:src/sys/devices.h ****   uint32_t TXCRCR;
 427:src/sys/devices.h ****   uint32_t I2SCFGR;
 428:src/sys/devices.h ****   uint32_t I2SPR;
 429:src/sys/devices.h **** };
 430:src/sys/devices.h **** 
 431:src/sys/devices.h **** /* RM §27.5.10 */
 432:src/sys/devices.h **** struct SPDIFRX_registers {
 433:src/sys/devices.h ****   uint32_t CR;
 434:src/sys/devices.h ****   uint32_t IMR;
 435:src/sys/devices.h ****   uint32_t SR;
 436:src/sys/devices.h ****   uint32_t IFCR;
 437:src/sys/devices.h ****   uint32_t DR;
 438:src/sys/devices.h ****   uint32_t CSR;
 439:src/sys/devices.h ****   uint32_t DIR;
 440:src/sys/devices.h **** };
 441:src/sys/devices.h **** 
 442:src/sys/devices.h **** /* RM §28.5.10 */
 443:src/sys/devices.h **** struct SAI_x_registers {
 444:src/sys/devices.h ****   uint32_t CR1;
 445:src/sys/devices.h ****   uint32_t CR2;
 446:src/sys/devices.h ****   uint32_t FRCR;
 447:src/sys/devices.h ****   uint32_t SLOTR;
 448:src/sys/devices.h ****   uint32_t IM;
 449:src/sys/devices.h ****   uint32_t SR;
 450:src/sys/devices.h ****   uint32_t CLRFR;
 451:src/sys/devices.h ****   uint32_t DR;
 452:src/sys/devices.h **** };
 453:src/sys/devices.h **** 
 454:src/sys/devices.h **** struct SAI_registers {
 455:src/sys/devices.h ****   uint32_t GCR;
 456:src/sys/devices.h ****   struct SAI_x_registers A;
 457:src/sys/devices.h ****   struct SAI_x_registers B;
 458:src/sys/devices.h **** };
 459:src/sys/devices.h **** 
 460:src/sys/devices.h **** /* RM §29.8.16 */
 461:src/sys/devices.h **** struct SDIO_registers {
 462:src/sys/devices.h ****   uint32_t POWER;
 463:src/sys/devices.h ****   uint32_t CLKCR;
 464:src/sys/devices.h ****   uint32_t CMD;
 465:src/sys/devices.h ****   uint32_t RESPCMD;
 466:src/sys/devices.h ****   uint32_t RESP1;
 467:src/sys/devices.h ****   uint32_t RESP2;
 468:src/sys/devices.h ****   uint32_t RESP3;
 469:src/sys/devices.h ****   uint32_t RESP4;
 470:src/sys/devices.h ****   uint32_t DTIMER;
 471:src/sys/devices.h ****   uint32_t DLEN;
 472:src/sys/devices.h ****   uint32_t DCTRL;
 473:src/sys/devices.h ****   uint32_t DCOUNT;
 474:src/sys/devices.h ****   uint32_t STA;
 475:src/sys/devices.h ****   uint32_t ICR;
 476:src/sys/devices.h ****   uint32_t MASK;
 477:src/sys/devices.h ****   __reserved(0x40);
 478:src/sys/devices.h ****   __reserved(0x44);
 479:src/sys/devices.h ****   uint32_t FIFOCNT;
 480:src/sys/devices.h ****   __reserved_interval(0x4c,0x80);
 481:src/sys/devices.h ****   uint32_t FIFO[32];
 482:src/sys/devices.h **** };
 483:src/sys/devices.h ****   
 484:src/sys/devices.h **** /* RM §30.9.5 */
 485:src/sys/devices.h **** struct bxCAN_TxRx_registers {
 486:src/sys/devices.h ****   uint32_t IR;
 487:src/sys/devices.h ****   uint32_t DTR;
 488:src/sys/devices.h ****   uint32_t DLR;
 489:src/sys/devices.h ****   uint32_t DHR;
 490:src/sys/devices.h **** };
 491:src/sys/devices.h **** 
 492:src/sys/devices.h **** struct bxCAN_registers {
 493:src/sys/devices.h ****   uint32_t MCR;
 494:src/sys/devices.h ****   uint32_t MSR;
 495:src/sys/devices.h ****   uint32_t TSR;
 496:src/sys/devices.h ****   uint32_t RF0R;
 497:src/sys/devices.h ****   uint32_t RF1R;
 498:src/sys/devices.h ****   uint32_t IER;
 499:src/sys/devices.h ****   uint32_t ESR;
 500:src/sys/devices.h ****   uint32_t BTR;
 501:src/sys/devices.h ****   __reserved_interval(0x20,0x180);
 502:src/sys/devices.h ****   struct bxCAN_TxRx_registers Tx[3];
 503:src/sys/devices.h ****   struct bxCAN_TxRx_registers Rx[2];
 504:src/sys/devices.h ****   __reserved_interval(0x1d0,0x200);
 505:src/sys/devices.h ****   uint32_t FMR;
 506:src/sys/devices.h ****   uint32_t FM1R;
 507:src/sys/devices.h ****   __reserved(0x208);
 508:src/sys/devices.h ****   uint32_t FS1R;
 509:src/sys/devices.h ****   __reserved(0x210);
 510:src/sys/devices.h ****   uint32_t FFA1R;
 511:src/sys/devices.h ****   __reserved(0x218);
 512:src/sys/devices.h ****   uint32_t FA1R;
 513:src/sys/devices.h ****   __reserved_interval(0x220,0x240);
 514:src/sys/devices.h ****   struct {uint32_t R1; uint32_t R2;} F[28];
 515:src/sys/devices.h **** };
 516:src/sys/devices.h **** 
 517:src/sys/devices.h **** /* RM §32.7.7 */
 518:src/sys/devices.h **** struct OTG_registers {
 519:src/sys/devices.h ****    /* TODO */
 520:src/sys/devices.h **** };
 521:src/sys/devices.h **** 
 522:src/sys/devices.h **** /* RM §32.7.7 */
 523:src/sys/devices.h **** struct HDMI_CEC_registers {
 524:src/sys/devices.h ****   uint32_t CR;
 525:src/sys/devices.h ****   uint32_t CFGR;
 526:src/sys/devices.h ****   uint32_t TXDR;
 527:src/sys/devices.h ****   uint32_t RXDR;
 528:src/sys/devices.h ****   uint32_t ISR;
 529:src/sys/devices.h ****   uint32_t IER;
 530:src/sys/devices.h **** };
 531:src/sys/devices.h **** 
 532:src/sys/devices.h **** /* RM §33.18 */
 533:src/sys/devices.h **** struct DBGMCU_registers {
 534:src/sys/devices.h ****   uint32_t IDCODE;
 535:src/sys/devices.h ****   uint32_t CR;
 536:src/sys/devices.h ****   uint32_t APB1FZ;
 537:src/sys/devices.h ****   uint32_t APB2FZ;
 538:src/sys/devices.h **** };
 539:src/sys/devices.h **** 
 540:src/sys/devices.h **** /* Constant values */
 541:src/sys/devices.h **** 
 542:src/sys/devices.h **** extern const uint16_t Package_data;
 543:src/sys/devices.h **** extern const uint16_t TS_CAL2;
 544:src/sys/devices.h **** extern const uint16_t TS_CAL1;
 545:src/sys/devices.h **** extern const uint16_t VREFIN_CAL;
 546:src/sys/devices.h **** extern const uint16_t Flash_size;
 547:src/sys/devices.h **** extern const uint32_t U_ID[3];
 548:src/sys/devices.h **** 
 549:src/sys/devices.h **** /* Core Devices base addresses */
 550:src/sys/devices.h **** 
 551:src/sys/devices.h **** extern volatile struct DBGMCU_registers DBG;
 552:src/sys/devices.h **** 
 553:src/sys/devices.h **** extern volatile struct FPU_registers FPU;
 554:src/sys/devices.h **** extern volatile uint32_t NVIC_STIR;
 555:src/sys/devices.h **** extern volatile struct MPU_registers MPU;
 556:src/sys/devices.h **** extern volatile uint32_t FPU_CPACR;
 557:src/sys/devices.h **** extern volatile struct SCB_registers SCB;
 558:src/sys/devices.h **** extern volatile struct NVIC_registers NVIC;
 559:src/sys/devices.h **** extern volatile struct STK_registers SysTick;
 560:src/sys/devices.h **** 
 561:src/sys/devices.h **** /* Devices base addresses */
 562:src/sys/devices.h **** 
 563:src/sys/devices.h **** extern volatile struct QUADSPI_registers QUADSPI;
 564:src/sys/devices.h **** 
 565:src/sys/devices.h **** extern volatile struct DCMI_registers DCMI;
 566:src/sys/devices.h **** extern volatile struct OTG_registers USB_OTG_FS;
 567:src/sys/devices.h **** 
 568:src/sys/devices.h **** extern volatile struct OTG_registers USB_OTG_HS;
 569:src/sys/devices.h **** extern volatile struct DMA_registers DMA2;
 570:src/sys/devices.h **** extern volatile struct DMA_registers DMA1;
 571:src/sys/devices.h **** extern uint32_t BKPSRAM[1024];
 572:src/sys/devices.h **** extern volatile struct FLASH_registers FLASH;
 573:src/sys/devices.h **** extern volatile struct RCC_registers RCC;
 574:src/sys/devices.h **** extern volatile struct CRC_registers CRC;
 575:src/sys/devices.h **** extern volatile struct GPIO_registers GPIOH;
 576:src/sys/devices.h **** extern volatile struct GPIO_registers GPIOG;
 577:src/sys/devices.h **** extern volatile struct GPIO_registers GPIOF;
 578:src/sys/devices.h **** extern volatile struct GPIO_registers GPIOE;
 579:src/sys/devices.h **** extern volatile struct GPIO_registers GPIOD;
 580:src/sys/devices.h **** extern volatile struct GPIO_registers GPIOC;
 581:src/sys/devices.h **** extern volatile struct GPIO_registers GPIOB;
 582:src/sys/devices.h **** extern volatile struct GPIO_registers GPIOA;
 583:src/sys/devices.h **** 
 584:src/sys/devices.h **** extern volatile struct SAI_registers SAI2;
 585:src/sys/devices.h **** extern volatile struct SAI_registers SAI1;
 586:src/sys/devices.h **** 
 587:src/sys/devices.h **** extern volatile struct TIMx_registers TIM11;
 588:src/sys/devices.h **** extern volatile struct TIMx_registers TIM10;
 589:src/sys/devices.h **** extern volatile struct TIMx_registers TIM9;
 590:src/sys/devices.h **** extern volatile struct EXTI_registers EXTI;
 591:src/sys/devices.h **** extern volatile struct SYSCFG_registers SYSCFG;
 592:src/sys/devices.h **** extern volatile struct SPI_registers SPI4;
 593:src/sys/devices.h **** extern volatile struct SPI_registers SPI1;
 594:src/sys/devices.h **** extern volatile struct SDIO_registers SDMMC;
 595:src/sys/devices.h **** extern volatile struct ADCx_registers ADC1;
 596:src/sys/devices.h **** extern volatile struct ADCx_registers ADC2;
 597:src/sys/devices.h **** extern volatile struct ADCx_registers ADC3;
 598:src/sys/devices.h **** extern volatile struct ADC_common_registers ADC_common;
 599:src/sys/devices.h **** extern volatile struct USART_registers USART6;
 600:src/sys/devices.h **** extern volatile struct USART_registers USART1;
 601:src/sys/devices.h **** extern volatile struct TIMx_registers TIM8;
 602:src/sys/devices.h **** extern volatile struct TIMx_registers TIM1;
 603:src/sys/devices.h **** 
 604:src/sys/devices.h **** extern volatile struct DAC_registers DAC;
 605:src/sys/devices.h **** extern volatile struct PWR_registers PWR;
 606:src/sys/devices.h **** extern volatile struct HDMI_CEC_registers HDMI_CEC;
 607:src/sys/devices.h **** extern volatile struct bxCAN_registers CAN2;
 608:src/sys/devices.h **** extern volatile struct bxCAN_registers CAN1;
 609:src/sys/devices.h **** extern volatile struct FMPI2C_registers FMPI2C1;
 610:src/sys/devices.h **** extern volatile struct I2C_registers I2C3;
 611:src/sys/devices.h **** extern volatile struct I2C_registers I2C2;
 612:src/sys/devices.h **** extern volatile struct I2C_registers I2C1;
 613:src/sys/devices.h **** extern volatile struct USART_registers UART5;
 614:src/sys/devices.h **** extern volatile struct USART_registers UART4;
 615:src/sys/devices.h **** extern volatile struct USART_registers USART3;
 616:src/sys/devices.h **** extern volatile struct USART_registers USART2;
 617:src/sys/devices.h **** extern volatile struct SPDIF_RX_registers SPDIF_RX;
 618:src/sys/devices.h **** extern volatile struct SPI_I2S_registers SPI3_I2S3;
 619:src/sys/devices.h **** extern volatile struct SPI_I2S_registers SPI2_I2S2;
 620:src/sys/devices.h **** extern volatile struct IWDG_registers IWDG;
 621:src/sys/devices.h **** extern volatile struct WWDG_registers WWDG;
 622:src/sys/devices.h **** extern volatile struct RTC_registers RTC_BKP;
 623:src/sys/devices.h **** extern volatile struct TIMx_registers TIM14;
 624:src/sys/devices.h **** extern volatile struct TIMx_registers TIM13;
 625:src/sys/devices.h **** extern volatile struct TIMx_registers TIM12;
 626:src/sys/devices.h **** extern volatile struct TIMx_registers TIM7;
 627:src/sys/devices.h **** extern volatile struct TIMx_registers TIM6;
 628:src/sys/devices.h **** extern volatile struct TIMx_registers TIM5;
 629:src/sys/devices.h **** extern volatile struct TIMx_registers TIM4;
 630:src/sys/devices.h **** extern volatile struct TIMx_registers TIM3;
 631:src/sys/devices.h **** extern volatile struct TIMx_registers TIM2;
 632:src/sys/devices.h **** 
 633:src/sys/devices.h **** #define __set_bit(_w,_i) ((_w)|=(1<<(_i)))
 634:src/sys/devices.h **** #define __clr_bit(_w,_i) ((_w) &= ~(1<<(_i)))
 635:src/sys/devices.h **** #define __really_inline__ static inline __attribute__((always_inline)) 
 636:src/sys/devices.h **** #define __sync __DSB
 637:src/sys/devices.h **** 
 638:src/sys/devices.h **** #define __declare_device_control(name,bus,bus_bit) \
 639:src/sys/devices.h ****   void __really_inline__ enable_##name() { \
 640:src/sys/devices.h ****     __set_bit(RCC.bus##ENR,bus_bit); __sync(); } \
 641:src/sys/devices.h ****   void __really_inline__ low_power_enable_##name() { \
 642:src/sys/devices.h ****     __set_bit(RCC.bus##LPENR,bus_bit); __sync(); } \
 643:src/sys/devices.h ****   void __really_inline__ disable_##name() { \
 644:src/sys/devices.h ****     __clr_bit(RCC.bus##ENR,bus_bit); __sync(); } \
 645:src/sys/devices.h ****   void __really_inline__ low_power_disable_## name() { \
 646:src/sys/devices.h ****     __clr_bit(RCC.bus##LPENR,bus_bit); __sync(); } \
 647:src/sys/devices.h ****   void __really_inline__ reset_##name() { \
 648:src/sys/devices.h ****     __set_bit(RCC.bus##RSTR,bus_bit); __sync(); } \
 649:src/sys/devices.h **** \
 650:src/sys/devices.h **** 
 651:src/sys/devices.h **** /* __declare_device_control(FMC,AHB3,0) FMC not available in LQFP64 package */
 652:src/sys/devices.h **** __declare_device_control(QUADSPI,AHB3,1)
 653:src/sys/devices.h **** 
 654:src/sys/devices.h **** __declare_device_control(DCMI,AHB2,0)
 655:src/sys/devices.h **** __declare_device_control(USB_OTG_FS,AHB2,7)
 656:src/sys/devices.h **** 
 657:src/sys/devices.h **** __declare_device_control(USB_OTG_HS,AHB1,29)
 658:src/sys/devices.h **** __declare_device_control(DMA2,AHB1,22)
 659:src/sys/devices.h **** __declare_device_control(DMA1,AHB1,21)
 660:src/sys/devices.h **** __declare_device_control(CRC,AHB1,12)
 661:src/sys/devices.h **** __declare_device_control(GPIOH,AHB1,7)
 662:src/sys/devices.h **** __declare_device_control(GPIOG,AHB1,6)
 663:src/sys/devices.h **** __declare_device_control(GPIOF,AHB1,5)
 664:src/sys/devices.h **** __declare_device_control(GPIOE,AHB1,4)
 665:src/sys/devices.h **** __declare_device_control(GPIOD,AHB1,3)
 666:src/sys/devices.h **** __declare_device_control(GPIOC,AHB1,2)
 667:src/sys/devices.h **** __declare_device_control(GPIOB,AHB1,1)
 668:src/sys/devices.h **** __declare_device_control(GPIOA,AHB1,0)
 517              		.loc 2 668 1 view .LVU135
 518              	.LBB28:
 519              		.loc 2 668 1 view .LVU136
 520              	.LBE28:
 521              	.LBE27:
 126:src/main.c    **** 
 522              		.loc 1 126 16 is_stmt 0 view .LVU137
 523 0000 70B5     		push	{r4, r5, r6, lr}
 524              		.cfi_def_cfa_offset 16
 525              		.cfi_offset 4, -16
 526              		.cfi_offset 5, -12
 527              		.cfi_offset 6, -8
 528              		.cfi_offset 14, -4
 529              	.LBB32:
 530              	.LBB31:
 531              		.loc 2 668 1 view .LVU138
 532 0002 344C     		ldr	r4, .L56
 533 0004 236B     		ldr	r3, [r4, #48]
 534 0006 43F00103 		orr	r3, r3, #1
 535 000a 2363     		str	r3, [r4, #48]
 536              		.loc 2 668 1 is_stmt 1 view .LVU139
 537              	.LBB29:
 538              	.LBI29:
 539              		.file 3 "src/sys/cmsis_gcc.h"
   1:src/sys/cmsis_gcc.h **** /**************************************************************************//**
   2:src/sys/cmsis_gcc.h ****  * @file     cmsis_gcc.h
   3:src/sys/cmsis_gcc.h ****  * @brief    CMSIS Cortex-M Core Function/Instruction Header File
   4:src/sys/cmsis_gcc.h ****  * @version  V4.30
   5:src/sys/cmsis_gcc.h ****  * @date     20. October 2015
   6:src/sys/cmsis_gcc.h ****  ******************************************************************************/
   7:src/sys/cmsis_gcc.h **** /* Copyright (c) 2009 - 2015 ARM LIMITED
   8:src/sys/cmsis_gcc.h **** 
   9:src/sys/cmsis_gcc.h ****    All rights reserved.
  10:src/sys/cmsis_gcc.h ****    Redistribution and use in source and binary forms, with or without
  11:src/sys/cmsis_gcc.h ****    modification, are permitted provided that the following conditions are met:
  12:src/sys/cmsis_gcc.h ****    - Redistributions of source code must retain the above copyright
  13:src/sys/cmsis_gcc.h ****      notice, this list of conditions and the following disclaimer.
  14:src/sys/cmsis_gcc.h ****    - Redistributions in binary form must reproduce the above copyright
  15:src/sys/cmsis_gcc.h ****      notice, this list of conditions and the following disclaimer in the
  16:src/sys/cmsis_gcc.h ****      documentation and/or other materials provided with the distribution.
  17:src/sys/cmsis_gcc.h ****    - Neither the name of ARM nor the names of its contributors may be used
  18:src/sys/cmsis_gcc.h ****      to endorse or promote products derived from this software without
  19:src/sys/cmsis_gcc.h ****      specific prior written permission.
  20:src/sys/cmsis_gcc.h ****    *
  21:src/sys/cmsis_gcc.h ****    THIS SOFTWARE IS PROVIDED BY THE COPYRIGHT HOLDERS AND CONTRIBUTORS "AS IS"
  22:src/sys/cmsis_gcc.h ****    AND ANY EXPRESS OR IMPLIED WARRANTIES, INCLUDING, BUT NOT LIMITED TO, THE
  23:src/sys/cmsis_gcc.h ****    IMPLIED WARRANTIES OF MERCHANTABILITY AND FITNESS FOR A PARTICULAR PURPOSE
  24:src/sys/cmsis_gcc.h ****    ARE DISCLAIMED. IN NO EVENT SHALL COPYRIGHT HOLDERS AND CONTRIBUTORS BE
  25:src/sys/cmsis_gcc.h ****    LIABLE FOR ANY DIRECT, INDIRECT, INCIDENTAL, SPECIAL, EXEMPLARY, OR
  26:src/sys/cmsis_gcc.h ****    CONSEQUENTIAL DAMAGES (INCLUDING, BUT NOT LIMITED TO, PROCUREMENT OF
  27:src/sys/cmsis_gcc.h ****    SUBSTITUTE GOODS OR SERVICES; LOSS OF USE, DATA, OR PROFITS; OR BUSINESS
  28:src/sys/cmsis_gcc.h ****    INTERRUPTION) HOWEVER CAUSED AND ON ANY THEORY OF LIABILITY, WHETHER IN
  29:src/sys/cmsis_gcc.h ****    CONTRACT, STRICT LIABILITY, OR TORT (INCLUDING NEGLIGENCE OR OTHERWISE)
  30:src/sys/cmsis_gcc.h ****    ARISING IN ANY WAY OUT OF THE USE OF THIS SOFTWARE, EVEN IF ADVISED OF THE
  31:src/sys/cmsis_gcc.h ****    POSSIBILITY OF SUCH DAMAGE.
  32:src/sys/cmsis_gcc.h ****    ---------------------------------------------------------------------------*/
  33:src/sys/cmsis_gcc.h **** 
  34:src/sys/cmsis_gcc.h **** #ifndef __CMSIS_GCC_H
  35:src/sys/cmsis_gcc.h **** #define __CMSIS_GCC_H
  36:src/sys/cmsis_gcc.h **** 
  37:src/sys/cmsis_gcc.h **** /* ignore some GCC warnings */
  38:src/sys/cmsis_gcc.h **** #if defined ( __GNUC__ )
  39:src/sys/cmsis_gcc.h **** #pragma GCC diagnostic push
  40:src/sys/cmsis_gcc.h **** #pragma GCC diagnostic ignored "-Wsign-conversion"
  41:src/sys/cmsis_gcc.h **** #pragma GCC diagnostic ignored "-Wconversion"
  42:src/sys/cmsis_gcc.h **** #pragma GCC diagnostic ignored "-Wunused-parameter"
  43:src/sys/cmsis_gcc.h **** #endif
  44:src/sys/cmsis_gcc.h **** 
  45:src/sys/cmsis_gcc.h **** 
  46:src/sys/cmsis_gcc.h **** /* ###########################  Core Function Access  ########################### */
  47:src/sys/cmsis_gcc.h **** /** \ingroup  CMSIS_Core_FunctionInterface
  48:src/sys/cmsis_gcc.h ****     \defgroup CMSIS_Core_RegAccFunctions CMSIS Core Register Access Functions
  49:src/sys/cmsis_gcc.h ****   @{
  50:src/sys/cmsis_gcc.h ****  */
  51:src/sys/cmsis_gcc.h **** 
  52:src/sys/cmsis_gcc.h **** /**
  53:src/sys/cmsis_gcc.h ****   \brief   Enable IRQ Interrupts
  54:src/sys/cmsis_gcc.h ****   \details Enables IRQ interrupts by clearing the I-bit in the CPSR.
  55:src/sys/cmsis_gcc.h ****            Can only be executed in Privileged modes.
  56:src/sys/cmsis_gcc.h ****  */
  57:src/sys/cmsis_gcc.h **** __attribute__( ( always_inline ) ) __STATIC_INLINE void __enable_irq(void)
  58:src/sys/cmsis_gcc.h **** {
  59:src/sys/cmsis_gcc.h ****   __ASM volatile ("cpsie i" : : : "memory");
  60:src/sys/cmsis_gcc.h **** }
  61:src/sys/cmsis_gcc.h **** 
  62:src/sys/cmsis_gcc.h **** 
  63:src/sys/cmsis_gcc.h **** /**
  64:src/sys/cmsis_gcc.h ****   \brief   Disable IRQ Interrupts
  65:src/sys/cmsis_gcc.h ****   \details Disables IRQ interrupts by setting the I-bit in the CPSR.
  66:src/sys/cmsis_gcc.h ****   Can only be executed in Privileged modes.
  67:src/sys/cmsis_gcc.h ****  */
  68:src/sys/cmsis_gcc.h **** __attribute__( ( always_inline ) ) __STATIC_INLINE void __disable_irq(void)
  69:src/sys/cmsis_gcc.h **** {
  70:src/sys/cmsis_gcc.h ****   __ASM volatile ("cpsid i" : : : "memory");
  71:src/sys/cmsis_gcc.h **** }
  72:src/sys/cmsis_gcc.h **** 
  73:src/sys/cmsis_gcc.h **** 
  74:src/sys/cmsis_gcc.h **** /**
  75:src/sys/cmsis_gcc.h ****   \brief   Get Control Register
  76:src/sys/cmsis_gcc.h ****   \details Returns the content of the Control Register.
  77:src/sys/cmsis_gcc.h ****   \return               Control Register value
  78:src/sys/cmsis_gcc.h ****  */
  79:src/sys/cmsis_gcc.h **** __attribute__( ( always_inline ) ) __STATIC_INLINE uint32_t __get_CONTROL(void)
  80:src/sys/cmsis_gcc.h **** {
  81:src/sys/cmsis_gcc.h ****   uint32_t result;
  82:src/sys/cmsis_gcc.h **** 
  83:src/sys/cmsis_gcc.h ****   __ASM volatile ("MRS %0, control" : "=r" (result) );
  84:src/sys/cmsis_gcc.h ****   return(result);
  85:src/sys/cmsis_gcc.h **** }
  86:src/sys/cmsis_gcc.h **** 
  87:src/sys/cmsis_gcc.h **** 
  88:src/sys/cmsis_gcc.h **** /**
  89:src/sys/cmsis_gcc.h ****   \brief   Set Control Register
  90:src/sys/cmsis_gcc.h ****   \details Writes the given value to the Control Register.
  91:src/sys/cmsis_gcc.h ****   \param [in]    control  Control Register value to set
  92:src/sys/cmsis_gcc.h ****  */
  93:src/sys/cmsis_gcc.h **** __attribute__( ( always_inline ) ) __STATIC_INLINE void __set_CONTROL(uint32_t control)
  94:src/sys/cmsis_gcc.h **** {
  95:src/sys/cmsis_gcc.h ****   __ASM volatile ("MSR control, %0" : : "r" (control) : "memory");
  96:src/sys/cmsis_gcc.h **** }
  97:src/sys/cmsis_gcc.h **** 
  98:src/sys/cmsis_gcc.h **** 
  99:src/sys/cmsis_gcc.h **** /**
 100:src/sys/cmsis_gcc.h ****   \brief   Get IPSR Register
 101:src/sys/cmsis_gcc.h ****   \details Returns the content of the IPSR Register.
 102:src/sys/cmsis_gcc.h ****   \return               IPSR Register value
 103:src/sys/cmsis_gcc.h ****  */
 104:src/sys/cmsis_gcc.h **** __attribute__( ( always_inline ) ) __STATIC_INLINE uint32_t __get_IPSR(void)
 105:src/sys/cmsis_gcc.h **** {
 106:src/sys/cmsis_gcc.h ****   uint32_t result;
 107:src/sys/cmsis_gcc.h **** 
 108:src/sys/cmsis_gcc.h ****   __ASM volatile ("MRS %0, ipsr" : "=r" (result) );
 109:src/sys/cmsis_gcc.h ****   return(result);
 110:src/sys/cmsis_gcc.h **** }
 111:src/sys/cmsis_gcc.h **** 
 112:src/sys/cmsis_gcc.h **** 
 113:src/sys/cmsis_gcc.h **** /**
 114:src/sys/cmsis_gcc.h ****   \brief   Get APSR Register
 115:src/sys/cmsis_gcc.h ****   \details Returns the content of the APSR Register.
 116:src/sys/cmsis_gcc.h ****   \return               APSR Register value
 117:src/sys/cmsis_gcc.h ****  */
 118:src/sys/cmsis_gcc.h **** __attribute__( ( always_inline ) ) __STATIC_INLINE uint32_t __get_APSR(void)
 119:src/sys/cmsis_gcc.h **** {
 120:src/sys/cmsis_gcc.h ****   uint32_t result;
 121:src/sys/cmsis_gcc.h **** 
 122:src/sys/cmsis_gcc.h ****   __ASM volatile ("MRS %0, apsr" : "=r" (result) );
 123:src/sys/cmsis_gcc.h ****   return(result);
 124:src/sys/cmsis_gcc.h **** }
 125:src/sys/cmsis_gcc.h **** 
 126:src/sys/cmsis_gcc.h **** 
 127:src/sys/cmsis_gcc.h **** /**
 128:src/sys/cmsis_gcc.h ****   \brief   Get xPSR Register
 129:src/sys/cmsis_gcc.h ****   \details Returns the content of the xPSR Register.
 130:src/sys/cmsis_gcc.h **** 
 131:src/sys/cmsis_gcc.h ****     \return               xPSR Register value
 132:src/sys/cmsis_gcc.h ****  */
 133:src/sys/cmsis_gcc.h **** __attribute__( ( always_inline ) ) __STATIC_INLINE uint32_t __get_xPSR(void)
 134:src/sys/cmsis_gcc.h **** {
 135:src/sys/cmsis_gcc.h ****   uint32_t result;
 136:src/sys/cmsis_gcc.h **** 
 137:src/sys/cmsis_gcc.h ****   __ASM volatile ("MRS %0, xpsr" : "=r" (result) );
 138:src/sys/cmsis_gcc.h ****   return(result);
 139:src/sys/cmsis_gcc.h **** }
 140:src/sys/cmsis_gcc.h **** 
 141:src/sys/cmsis_gcc.h **** 
 142:src/sys/cmsis_gcc.h **** /**
 143:src/sys/cmsis_gcc.h ****   \brief   Get Process Stack Pointer
 144:src/sys/cmsis_gcc.h ****   \details Returns the current value of the Process Stack Pointer (PSP).
 145:src/sys/cmsis_gcc.h ****   \return               PSP Register value
 146:src/sys/cmsis_gcc.h ****  */
 147:src/sys/cmsis_gcc.h **** __attribute__( ( always_inline ) ) __STATIC_INLINE uint32_t __get_PSP(void)
 148:src/sys/cmsis_gcc.h **** {
 149:src/sys/cmsis_gcc.h ****   register uint32_t result;
 150:src/sys/cmsis_gcc.h **** 
 151:src/sys/cmsis_gcc.h ****   __ASM volatile ("MRS %0, psp\n"  : "=r" (result) );
 152:src/sys/cmsis_gcc.h ****   return(result);
 153:src/sys/cmsis_gcc.h **** }
 154:src/sys/cmsis_gcc.h **** 
 155:src/sys/cmsis_gcc.h **** 
 156:src/sys/cmsis_gcc.h **** /**
 157:src/sys/cmsis_gcc.h ****   \brief   Set Process Stack Pointer
 158:src/sys/cmsis_gcc.h ****   \details Assigns the given value to the Process Stack Pointer (PSP).
 159:src/sys/cmsis_gcc.h ****   \param [in]    topOfProcStack  Process Stack Pointer value to set
 160:src/sys/cmsis_gcc.h ****  */
 161:src/sys/cmsis_gcc.h **** __attribute__( ( always_inline ) ) __STATIC_INLINE void __set_PSP(uint32_t topOfProcStack)
 162:src/sys/cmsis_gcc.h **** {
 163:src/sys/cmsis_gcc.h ****   __ASM volatile ("MSR psp, %0\n" : : "r" (topOfProcStack) : "sp");
 164:src/sys/cmsis_gcc.h **** }
 165:src/sys/cmsis_gcc.h **** 
 166:src/sys/cmsis_gcc.h **** 
 167:src/sys/cmsis_gcc.h **** /**
 168:src/sys/cmsis_gcc.h ****   \brief   Get Main Stack Pointer
 169:src/sys/cmsis_gcc.h ****   \details Returns the current value of the Main Stack Pointer (MSP).
 170:src/sys/cmsis_gcc.h ****   \return               MSP Register value
 171:src/sys/cmsis_gcc.h ****  */
 172:src/sys/cmsis_gcc.h **** __attribute__( ( always_inline ) ) __STATIC_INLINE uint32_t __get_MSP(void)
 173:src/sys/cmsis_gcc.h **** {
 174:src/sys/cmsis_gcc.h ****   register uint32_t result;
 175:src/sys/cmsis_gcc.h **** 
 176:src/sys/cmsis_gcc.h ****   __ASM volatile ("MRS %0, msp\n" : "=r" (result) );
 177:src/sys/cmsis_gcc.h ****   return(result);
 178:src/sys/cmsis_gcc.h **** }
 179:src/sys/cmsis_gcc.h **** 
 180:src/sys/cmsis_gcc.h **** 
 181:src/sys/cmsis_gcc.h **** /**
 182:src/sys/cmsis_gcc.h ****   \brief   Set Main Stack Pointer
 183:src/sys/cmsis_gcc.h ****   \details Assigns the given value to the Main Stack Pointer (MSP).
 184:src/sys/cmsis_gcc.h **** 
 185:src/sys/cmsis_gcc.h ****     \param [in]    topOfMainStack  Main Stack Pointer value to set
 186:src/sys/cmsis_gcc.h ****  */
 187:src/sys/cmsis_gcc.h **** __attribute__( ( always_inline ) ) __STATIC_INLINE void __set_MSP(uint32_t topOfMainStack)
 188:src/sys/cmsis_gcc.h **** {
 189:src/sys/cmsis_gcc.h ****   __ASM volatile ("MSR msp, %0\n" : : "r" (topOfMainStack) : "sp");
 190:src/sys/cmsis_gcc.h **** }
 191:src/sys/cmsis_gcc.h **** 
 192:src/sys/cmsis_gcc.h **** 
 193:src/sys/cmsis_gcc.h **** /**
 194:src/sys/cmsis_gcc.h ****   \brief   Get Priority Mask
 195:src/sys/cmsis_gcc.h ****   \details Returns the current state of the priority mask bit from the Priority Mask Register.
 196:src/sys/cmsis_gcc.h ****   \return               Priority Mask value
 197:src/sys/cmsis_gcc.h ****  */
 198:src/sys/cmsis_gcc.h **** __attribute__( ( always_inline ) ) __STATIC_INLINE uint32_t __get_PRIMASK(void)
 199:src/sys/cmsis_gcc.h **** {
 200:src/sys/cmsis_gcc.h ****   uint32_t result;
 201:src/sys/cmsis_gcc.h **** 
 202:src/sys/cmsis_gcc.h ****   __ASM volatile ("MRS %0, primask" : "=r" (result) );
 203:src/sys/cmsis_gcc.h ****   return(result);
 204:src/sys/cmsis_gcc.h **** }
 205:src/sys/cmsis_gcc.h **** 
 206:src/sys/cmsis_gcc.h **** 
 207:src/sys/cmsis_gcc.h **** /**
 208:src/sys/cmsis_gcc.h ****   \brief   Set Priority Mask
 209:src/sys/cmsis_gcc.h ****   \details Assigns the given value to the Priority Mask Register.
 210:src/sys/cmsis_gcc.h ****   \param [in]    priMask  Priority Mask
 211:src/sys/cmsis_gcc.h ****  */
 212:src/sys/cmsis_gcc.h **** __attribute__( ( always_inline ) ) __STATIC_INLINE void __set_PRIMASK(uint32_t priMask)
 213:src/sys/cmsis_gcc.h **** {
 214:src/sys/cmsis_gcc.h ****   __ASM volatile ("MSR primask, %0" : : "r" (priMask) : "memory");
 215:src/sys/cmsis_gcc.h **** }
 216:src/sys/cmsis_gcc.h **** 
 217:src/sys/cmsis_gcc.h **** 
 218:src/sys/cmsis_gcc.h **** #if       (__CORTEX_M >= 0x03U)
 219:src/sys/cmsis_gcc.h **** 
 220:src/sys/cmsis_gcc.h **** /**
 221:src/sys/cmsis_gcc.h ****   \brief   Enable FIQ
 222:src/sys/cmsis_gcc.h ****   \details Enables FIQ interrupts by clearing the F-bit in the CPSR.
 223:src/sys/cmsis_gcc.h ****            Can only be executed in Privileged modes.
 224:src/sys/cmsis_gcc.h ****  */
 225:src/sys/cmsis_gcc.h **** __attribute__( ( always_inline ) ) __STATIC_INLINE void __enable_fault_irq(void)
 226:src/sys/cmsis_gcc.h **** {
 227:src/sys/cmsis_gcc.h ****   __ASM volatile ("cpsie f" : : : "memory");
 228:src/sys/cmsis_gcc.h **** }
 229:src/sys/cmsis_gcc.h **** 
 230:src/sys/cmsis_gcc.h **** 
 231:src/sys/cmsis_gcc.h **** /**
 232:src/sys/cmsis_gcc.h ****   \brief   Disable FIQ
 233:src/sys/cmsis_gcc.h ****   \details Disables FIQ interrupts by setting the F-bit in the CPSR.
 234:src/sys/cmsis_gcc.h ****            Can only be executed in Privileged modes.
 235:src/sys/cmsis_gcc.h ****  */
 236:src/sys/cmsis_gcc.h **** __attribute__( ( always_inline ) ) __STATIC_INLINE void __disable_fault_irq(void)
 237:src/sys/cmsis_gcc.h **** {
 238:src/sys/cmsis_gcc.h ****   __ASM volatile ("cpsid f" : : : "memory");
 239:src/sys/cmsis_gcc.h **** }
 240:src/sys/cmsis_gcc.h **** 
 241:src/sys/cmsis_gcc.h **** 
 242:src/sys/cmsis_gcc.h **** /**
 243:src/sys/cmsis_gcc.h ****   \brief   Get Base Priority
 244:src/sys/cmsis_gcc.h ****   \details Returns the current value of the Base Priority register.
 245:src/sys/cmsis_gcc.h ****   \return               Base Priority register value
 246:src/sys/cmsis_gcc.h ****  */
 247:src/sys/cmsis_gcc.h **** __attribute__( ( always_inline ) ) __STATIC_INLINE uint32_t __get_BASEPRI(void)
 248:src/sys/cmsis_gcc.h **** {
 249:src/sys/cmsis_gcc.h ****   uint32_t result;
 250:src/sys/cmsis_gcc.h **** 
 251:src/sys/cmsis_gcc.h ****   __ASM volatile ("MRS %0, basepri" : "=r" (result) );
 252:src/sys/cmsis_gcc.h ****   return(result);
 253:src/sys/cmsis_gcc.h **** }
 254:src/sys/cmsis_gcc.h **** 
 255:src/sys/cmsis_gcc.h **** 
 256:src/sys/cmsis_gcc.h **** /**
 257:src/sys/cmsis_gcc.h ****   \brief   Set Base Priority
 258:src/sys/cmsis_gcc.h ****   \details Assigns the given value to the Base Priority register.
 259:src/sys/cmsis_gcc.h ****   \param [in]    basePri  Base Priority value to set
 260:src/sys/cmsis_gcc.h ****  */
 261:src/sys/cmsis_gcc.h **** __attribute__( ( always_inline ) ) __STATIC_INLINE void __set_BASEPRI(uint32_t value)
 262:src/sys/cmsis_gcc.h **** {
 263:src/sys/cmsis_gcc.h ****   __ASM volatile ("MSR basepri, %0" : : "r" (value) : "memory");
 264:src/sys/cmsis_gcc.h **** }
 265:src/sys/cmsis_gcc.h **** 
 266:src/sys/cmsis_gcc.h **** 
 267:src/sys/cmsis_gcc.h **** /**
 268:src/sys/cmsis_gcc.h ****   \brief   Set Base Priority with condition
 269:src/sys/cmsis_gcc.h ****   \details Assigns the given value to the Base Priority register only if BASEPRI masking is disable
 270:src/sys/cmsis_gcc.h ****            or the new value increases the BASEPRI priority level.
 271:src/sys/cmsis_gcc.h ****   \param [in]    basePri  Base Priority value to set
 272:src/sys/cmsis_gcc.h ****  */
 273:src/sys/cmsis_gcc.h **** __attribute__( ( always_inline ) ) __STATIC_INLINE void __set_BASEPRI_MAX(uint32_t value)
 274:src/sys/cmsis_gcc.h **** {
 275:src/sys/cmsis_gcc.h ****   __ASM volatile ("MSR basepri_max, %0" : : "r" (value) : "memory");
 276:src/sys/cmsis_gcc.h **** }
 277:src/sys/cmsis_gcc.h **** 
 278:src/sys/cmsis_gcc.h **** 
 279:src/sys/cmsis_gcc.h **** /**
 280:src/sys/cmsis_gcc.h ****   \brief   Get Fault Mask
 281:src/sys/cmsis_gcc.h ****   \details Returns the current value of the Fault Mask register.
 282:src/sys/cmsis_gcc.h ****   \return               Fault Mask register value
 283:src/sys/cmsis_gcc.h ****  */
 284:src/sys/cmsis_gcc.h **** __attribute__( ( always_inline ) ) __STATIC_INLINE uint32_t __get_FAULTMASK(void)
 285:src/sys/cmsis_gcc.h **** {
 286:src/sys/cmsis_gcc.h ****   uint32_t result;
 287:src/sys/cmsis_gcc.h **** 
 288:src/sys/cmsis_gcc.h ****   __ASM volatile ("MRS %0, faultmask" : "=r" (result) );
 289:src/sys/cmsis_gcc.h ****   return(result);
 290:src/sys/cmsis_gcc.h **** }
 291:src/sys/cmsis_gcc.h **** 
 292:src/sys/cmsis_gcc.h **** 
 293:src/sys/cmsis_gcc.h **** /**
 294:src/sys/cmsis_gcc.h ****   \brief   Set Fault Mask
 295:src/sys/cmsis_gcc.h ****   \details Assigns the given value to the Fault Mask register.
 296:src/sys/cmsis_gcc.h ****   \param [in]    faultMask  Fault Mask value to set
 297:src/sys/cmsis_gcc.h ****  */
 298:src/sys/cmsis_gcc.h **** __attribute__( ( always_inline ) ) __STATIC_INLINE void __set_FAULTMASK(uint32_t faultMask)
 299:src/sys/cmsis_gcc.h **** {
 300:src/sys/cmsis_gcc.h ****   __ASM volatile ("MSR faultmask, %0" : : "r" (faultMask) : "memory");
 301:src/sys/cmsis_gcc.h **** }
 302:src/sys/cmsis_gcc.h **** 
 303:src/sys/cmsis_gcc.h **** #endif /* (__CORTEX_M >= 0x03U) */
 304:src/sys/cmsis_gcc.h **** 
 305:src/sys/cmsis_gcc.h **** 
 306:src/sys/cmsis_gcc.h **** #if       (__CORTEX_M == 0x04U) || (__CORTEX_M == 0x07U)
 307:src/sys/cmsis_gcc.h **** 
 308:src/sys/cmsis_gcc.h **** /**
 309:src/sys/cmsis_gcc.h ****   \brief   Get FPSCR
 310:src/sys/cmsis_gcc.h ****   \details Returns the current value of the Floating Point Status/Control register.
 311:src/sys/cmsis_gcc.h ****   \return               Floating Point Status/Control register value
 312:src/sys/cmsis_gcc.h ****  */
 313:src/sys/cmsis_gcc.h **** __attribute__( ( always_inline ) ) __STATIC_INLINE uint32_t __get_FPSCR(void)
 314:src/sys/cmsis_gcc.h **** {
 315:src/sys/cmsis_gcc.h **** #if (__FPU_PRESENT == 1U) && (__FPU_USED == 1U)
 316:src/sys/cmsis_gcc.h ****   uint32_t result;
 317:src/sys/cmsis_gcc.h **** 
 318:src/sys/cmsis_gcc.h ****   /* Empty asm statement works as a scheduling barrier */
 319:src/sys/cmsis_gcc.h ****   __ASM volatile ("");
 320:src/sys/cmsis_gcc.h ****   __ASM volatile ("VMRS %0, fpscr" : "=r" (result) );
 321:src/sys/cmsis_gcc.h ****   __ASM volatile ("");
 322:src/sys/cmsis_gcc.h ****   return(result);
 323:src/sys/cmsis_gcc.h **** #else
 324:src/sys/cmsis_gcc.h ****    return(0);
 325:src/sys/cmsis_gcc.h **** #endif
 326:src/sys/cmsis_gcc.h **** }
 327:src/sys/cmsis_gcc.h **** 
 328:src/sys/cmsis_gcc.h **** 
 329:src/sys/cmsis_gcc.h **** /**
 330:src/sys/cmsis_gcc.h ****   \brief   Set FPSCR
 331:src/sys/cmsis_gcc.h ****   \details Assigns the given value to the Floating Point Status/Control register.
 332:src/sys/cmsis_gcc.h ****   \param [in]    fpscr  Floating Point Status/Control value to set
 333:src/sys/cmsis_gcc.h ****  */
 334:src/sys/cmsis_gcc.h **** __attribute__( ( always_inline ) ) __STATIC_INLINE void __set_FPSCR(uint32_t fpscr)
 335:src/sys/cmsis_gcc.h **** {
 336:src/sys/cmsis_gcc.h **** #if (__FPU_PRESENT == 1U) && (__FPU_USED == 1U)
 337:src/sys/cmsis_gcc.h ****   /* Empty asm statement works as a scheduling barrier */
 338:src/sys/cmsis_gcc.h ****   __ASM volatile ("");
 339:src/sys/cmsis_gcc.h ****   __ASM volatile ("VMSR fpscr, %0" : : "r" (fpscr) : "vfpcc");
 340:src/sys/cmsis_gcc.h ****   __ASM volatile ("");
 341:src/sys/cmsis_gcc.h **** #endif
 342:src/sys/cmsis_gcc.h **** }
 343:src/sys/cmsis_gcc.h **** 
 344:src/sys/cmsis_gcc.h **** #endif /* (__CORTEX_M == 0x04U) || (__CORTEX_M == 0x07U) */
 345:src/sys/cmsis_gcc.h **** 
 346:src/sys/cmsis_gcc.h **** 
 347:src/sys/cmsis_gcc.h **** 
 348:src/sys/cmsis_gcc.h **** /*@} end of CMSIS_Core_RegAccFunctions */
 349:src/sys/cmsis_gcc.h **** 
 350:src/sys/cmsis_gcc.h **** 
 351:src/sys/cmsis_gcc.h **** /* ##########################  Core Instruction Access  ######################### */
 352:src/sys/cmsis_gcc.h **** /** \defgroup CMSIS_Core_InstructionInterface CMSIS Core Instruction Interface
 353:src/sys/cmsis_gcc.h ****   Access to dedicated instructions
 354:src/sys/cmsis_gcc.h ****   @{
 355:src/sys/cmsis_gcc.h **** */
 356:src/sys/cmsis_gcc.h **** 
 357:src/sys/cmsis_gcc.h **** /* Define macros for porting to both thumb1 and thumb2.
 358:src/sys/cmsis_gcc.h ****  * For thumb1, use low register (r0-r7), specified by constraint "l"
 359:src/sys/cmsis_gcc.h ****  * Otherwise, use general registers, specified by constraint "r" */
 360:src/sys/cmsis_gcc.h **** #if defined (__thumb__) && !defined (__thumb2__)
 361:src/sys/cmsis_gcc.h **** #define __CMSIS_GCC_OUT_REG(r) "=l" (r)
 362:src/sys/cmsis_gcc.h **** #define __CMSIS_GCC_USE_REG(r) "l" (r)
 363:src/sys/cmsis_gcc.h **** #else
 364:src/sys/cmsis_gcc.h **** #define __CMSIS_GCC_OUT_REG(r) "=r" (r)
 365:src/sys/cmsis_gcc.h **** #define __CMSIS_GCC_USE_REG(r) "r" (r)
 366:src/sys/cmsis_gcc.h **** #endif
 367:src/sys/cmsis_gcc.h **** 
 368:src/sys/cmsis_gcc.h **** /**
 369:src/sys/cmsis_gcc.h ****   \brief   No Operation
 370:src/sys/cmsis_gcc.h ****   \details No Operation does nothing. This instruction can be used for code alignment purposes.
 371:src/sys/cmsis_gcc.h ****  */
 372:src/sys/cmsis_gcc.h **** __attribute__((always_inline)) __STATIC_INLINE void __NOP(void)
 373:src/sys/cmsis_gcc.h **** {
 374:src/sys/cmsis_gcc.h ****   __ASM volatile ("nop");
 375:src/sys/cmsis_gcc.h **** }
 376:src/sys/cmsis_gcc.h **** 
 377:src/sys/cmsis_gcc.h **** 
 378:src/sys/cmsis_gcc.h **** /**
 379:src/sys/cmsis_gcc.h ****   \brief   Wait For Interrupt
 380:src/sys/cmsis_gcc.h ****   \details Wait For Interrupt is a hint instruction that suspends execution until one of a number o
 381:src/sys/cmsis_gcc.h ****  */
 382:src/sys/cmsis_gcc.h **** __attribute__((always_inline)) __STATIC_INLINE void __WFI(void)
 383:src/sys/cmsis_gcc.h **** {
 384:src/sys/cmsis_gcc.h ****   __ASM volatile ("wfi");
 385:src/sys/cmsis_gcc.h **** }
 386:src/sys/cmsis_gcc.h **** 
 387:src/sys/cmsis_gcc.h **** 
 388:src/sys/cmsis_gcc.h **** /**
 389:src/sys/cmsis_gcc.h ****   \brief   Wait For Event
 390:src/sys/cmsis_gcc.h ****   \details Wait For Event is a hint instruction that permits the processor to enter
 391:src/sys/cmsis_gcc.h ****     a low-power state until one of a number of events occurs.
 392:src/sys/cmsis_gcc.h ****  */
 393:src/sys/cmsis_gcc.h **** __attribute__((always_inline)) __STATIC_INLINE void __WFE(void)
 394:src/sys/cmsis_gcc.h **** {
 395:src/sys/cmsis_gcc.h ****   __ASM volatile ("wfe");
 396:src/sys/cmsis_gcc.h **** }
 397:src/sys/cmsis_gcc.h **** 
 398:src/sys/cmsis_gcc.h **** 
 399:src/sys/cmsis_gcc.h **** /**
 400:src/sys/cmsis_gcc.h ****   \brief   Send Event
 401:src/sys/cmsis_gcc.h ****   \details Send Event is a hint instruction. It causes an event to be signaled to the CPU.
 402:src/sys/cmsis_gcc.h ****  */
 403:src/sys/cmsis_gcc.h **** __attribute__((always_inline)) __STATIC_INLINE void __SEV(void)
 404:src/sys/cmsis_gcc.h **** {
 405:src/sys/cmsis_gcc.h ****   __ASM volatile ("sev");
 406:src/sys/cmsis_gcc.h **** }
 407:src/sys/cmsis_gcc.h **** 
 408:src/sys/cmsis_gcc.h **** 
 409:src/sys/cmsis_gcc.h **** /**
 410:src/sys/cmsis_gcc.h ****   \brief   Instruction Synchronization Barrier
 411:src/sys/cmsis_gcc.h ****   \details Instruction Synchronization Barrier flushes the pipeline in the processor,
 412:src/sys/cmsis_gcc.h ****            so that all instructions following the ISB are fetched from cache or memory,
 413:src/sys/cmsis_gcc.h ****            after the instruction has been completed.
 414:src/sys/cmsis_gcc.h ****  */
 415:src/sys/cmsis_gcc.h **** __attribute__((always_inline)) __STATIC_INLINE void __ISB(void)
 416:src/sys/cmsis_gcc.h **** {
 417:src/sys/cmsis_gcc.h ****   __ASM volatile ("isb 0xF":::"memory");
 418:src/sys/cmsis_gcc.h **** }
 419:src/sys/cmsis_gcc.h **** 
 420:src/sys/cmsis_gcc.h **** 
 421:src/sys/cmsis_gcc.h **** /**
 422:src/sys/cmsis_gcc.h ****   \brief   Data Synchronization Barrier
 423:src/sys/cmsis_gcc.h ****   \details Acts as a special kind of Data Memory Barrier.
 424:src/sys/cmsis_gcc.h ****            It completes when all explicit memory accesses before this instruction complete.
 425:src/sys/cmsis_gcc.h ****  */
 426:src/sys/cmsis_gcc.h **** __attribute__((always_inline)) __STATIC_INLINE void __DSB(void)
 540              		.loc 3 426 53 view .LVU140
 541              	.LBB30:
 427:src/sys/cmsis_gcc.h **** {
 428:src/sys/cmsis_gcc.h ****   __ASM volatile ("dsb 0xF":::"memory");
 542              		.loc 3 428 3 view .LVU141
 543              		.syntax unified
 544              	@ 428 "src/sys/cmsis_gcc.h" 1
 545 000c BFF34F8F 		dsb 0xF
 546              	@ 0 "" 2
 547              		.thumb
 548              		.syntax unified
 549              	.LBE30:
 550              	.LBE29:
 551              	.LBE31:
 552              	.LBE32:
 129:src/main.c    ****     // Setup mode simple
 130:src/main.c    ****     led_init();
 553              		.loc 1 130 5 view .LVU142
 554 0010 FFF7FEFF 		bl	led_init
 555              	.LVL18:
 131:src/main.c    ****     // Setup mode pwm
 132:src/main.c    ****     enable_TIM2();
 556              		.loc 1 132 5 view .LVU143
 557              	.LBB33:
 558              	.LBI33:
 669:src/sys/devices.h **** 
 670:src/sys/devices.h **** __declare_device_control(SAI2,APB2,23)
 671:src/sys/devices.h **** __declare_device_control(SAI1,APB2,22)
 672:src/sys/devices.h **** 
 673:src/sys/devices.h **** __declare_device_control(TIM11,APB2,18)
 674:src/sys/devices.h **** __declare_device_control(TIM10,APB2,17)
 675:src/sys/devices.h **** __declare_device_control(TIM9,APB2,16)
 676:src/sys/devices.h **** __declare_device_control(SYSCFG,APB2,14)
 677:src/sys/devices.h **** __declare_device_control(SPI4,APB2,13)
 678:src/sys/devices.h **** __declare_device_control(SPI1,APB2,12)
 679:src/sys/devices.h **** __declare_device_control(SDMMC,APB2,11)
 680:src/sys/devices.h **** __declare_device_control(ADC,APB2,8)
 681:src/sys/devices.h **** __declare_device_control(USART6,APB2,5)
 682:src/sys/devices.h **** __declare_device_control(USART1,APB2,4)
 683:src/sys/devices.h **** __declare_device_control(TIM8,APB2,1)
 684:src/sys/devices.h **** __declare_device_control(TIM1,APB2,0)
 685:src/sys/devices.h **** 
 686:src/sys/devices.h **** __declare_device_control(DAC,APB1,29)
 687:src/sys/devices.h **** __declare_device_control(PWR,APB1,28)
 688:src/sys/devices.h **** __declare_device_control(HDMI_CEC,APB1,27)
 689:src/sys/devices.h **** __declare_device_control(CAN2,APB1,26)
 690:src/sys/devices.h **** __declare_device_control(CAN1,APB1,25)
 691:src/sys/devices.h **** __declare_device_control(FMPI2C1,APB1,24)
 692:src/sys/devices.h **** __declare_device_control(I2C3,APB1,23)
 693:src/sys/devices.h **** __declare_device_control(I2C2,APB1,22)
 694:src/sys/devices.h **** __declare_device_control(I2C1,APB1,21)
 695:src/sys/devices.h **** __declare_device_control(UART5,APB1,20)
 696:src/sys/devices.h **** __declare_device_control(UART4,APB1,19)
 697:src/sys/devices.h **** __declare_device_control(USART3,APB1,18)
 698:src/sys/devices.h **** __declare_device_control(USART2,APB1,17)
 699:src/sys/devices.h **** __declare_device_control(SPDIF_RX,APB1,16)
 700:src/sys/devices.h **** __declare_device_control(SPI3_I2S3,APB1,15)
 701:src/sys/devices.h **** __declare_device_control(SPI2_I2S2,APB1,14)
 702:src/sys/devices.h **** __declare_device_control(WWDG,APB1,11)
 703:src/sys/devices.h **** __declare_device_control(TIM14,APB1,8)
 704:src/sys/devices.h **** __declare_device_control(TIM13,APB1,7)
 705:src/sys/devices.h **** __declare_device_control(TIM12,APB1,6)
 706:src/sys/devices.h **** __declare_device_control(TIM7,APB1,5)
 707:src/sys/devices.h **** __declare_device_control(TIM6,APB1,4)
 708:src/sys/devices.h **** __declare_device_control(TIM5,APB1,3)
 709:src/sys/devices.h **** __declare_device_control(TIM4,APB1,2)
 710:src/sys/devices.h **** __declare_device_control(TIM3,APB1,1)
 711:src/sys/devices.h **** __declare_device_control(TIM2,APB1,0)
 559              		.loc 2 711 1 view .LVU144
 560              	.LBB34:
 561              		.loc 2 711 1 view .LVU145
 562 0014 236C     		ldr	r3, [r4, #64]
 563 0016 43F00103 		orr	r3, r3, #1
 564 001a 2364     		str	r3, [r4, #64]
 565              		.loc 2 711 1 view .LVU146
 566              	.LBB35:
 567              	.LBI35:
 426:src/sys/cmsis_gcc.h **** {
 568              		.loc 3 426 53 view .LVU147
 569              	.LBB36:
 570              		.loc 3 428 3 view .LVU148
 571              		.syntax unified
 572              	@ 428 "src/sys/cmsis_gcc.h" 1
 573 001c BFF34F8F 		dsb 0xF
 574              	@ 0 "" 2
 575              		.thumb
 576              		.syntax unified
 577              	.LBE36:
 578              	.LBE35:
 579              	.LBE34:
 580              	.LBE33:
 133:src/main.c    **** 
 134:src/main.c    ****     enable_GPIOC();  // PC13 => Bouton poussoir
 581              		.loc 1 134 5 view .LVU149
 582              	.LBB37:
 583              	.LBI37:
 666:src/sys/devices.h **** __declare_device_control(GPIOB,AHB1,1)
 584              		.loc 2 666 1 view .LVU150
 585              	.LBB38:
 666:src/sys/devices.h **** __declare_device_control(GPIOB,AHB1,1)
 586              		.loc 2 666 1 view .LVU151
 587 0020 236B     		ldr	r3, [r4, #48]
 588 0022 43F00403 		orr	r3, r3, #4
 589 0026 2363     		str	r3, [r4, #48]
 666:src/sys/devices.h **** __declare_device_control(GPIOB,AHB1,1)
 590              		.loc 2 666 1 view .LVU152
 591              	.LBB39:
 592              	.LBI39:
 426:src/sys/cmsis_gcc.h **** {
 593              		.loc 3 426 53 view .LVU153
 594              	.LBB40:
 595              		.loc 3 428 3 view .LVU154
 596              		.syntax unified
 597              	@ 428 "src/sys/cmsis_gcc.h" 1
 598 0028 BFF34F8F 		dsb 0xF
 599              	@ 0 "" 2
 600              		.thumb
 601              		.syntax unified
 602              	.LBE40:
 603              	.LBE39:
 604              	.LBE38:
 605              	.LBE37:
 135:src/main.c    ****     enable_SYSCFG();
 606              		.loc 1 135 5 view .LVU155
 607              	.LBB41:
 608              	.LBI41:
 676:src/sys/devices.h **** __declare_device_control(SPI4,APB2,13)
 609              		.loc 2 676 1 view .LVU156
 610              	.LBB42:
 676:src/sys/devices.h **** __declare_device_control(SPI4,APB2,13)
 611              		.loc 2 676 1 view .LVU157
 612 002c 636C     		ldr	r3, [r4, #68]
 613 002e 43F48043 		orr	r3, r3, #16384
 614 0032 6364     		str	r3, [r4, #68]
 676:src/sys/devices.h **** __declare_device_control(SPI4,APB2,13)
 615              		.loc 2 676 1 view .LVU158
 616              	.LBB43:
 617              	.LBI43:
 426:src/sys/cmsis_gcc.h **** {
 618              		.loc 3 426 53 view .LVU159
 619              	.LBB44:
 620              		.loc 3 428 3 view .LVU160
 621              		.syntax unified
 622              	@ 428 "src/sys/cmsis_gcc.h" 1
 623 0034 BFF34F8F 		dsb 0xF
 624              	@ 0 "" 2
 625              		.thumb
 626              		.syntax unified
 627              	.LBE44:
 628              	.LBE43:
 629              	.LBE42:
 630              	.LBE41:
 136:src/main.c    ****     PC13_init();
 631              		.loc 1 136 5 view .LVU161
 632 0038 FFF7FEFF 		bl	PC13_init
 633              	.LVL19:
 137:src/main.c    ****     PC13_irq_init();
 634              		.loc 1 137 5 view .LVU162
 635 003c FFF7FEFF 		bl	PC13_irq_init
 636              	.LVL20:
 138:src/main.c    ****     
 139:src/main.c    **** 
 140:src/main.c    ****     SysTick_init(1000);
 637              		.loc 1 140 5 view .LVU163
 638 0040 4FF47A70 		mov	r0, #1000
 639 0044 FFF7FEFF 		bl	SysTick_init
 640              	.LVL21:
 141:src/main.c    **** 
 142:src/main.c    ****     setup_USART2(9600);
 641              		.loc 1 142 5 view .LVU164
 642 0048 4FF41650 		mov	r0, #9600
 643 004c FFF7FEFF 		bl	setup_USART2
 644              	.LVL22:
 143:src/main.c    ****     // USART2.CR1 |= (1 << 5); // enable RXNE interrupt for USART2
 144:src/main.c    ****     // NVIC.ISER[1] |= (0b1 << 6);
 145:src/main.c    **** 
 146:src/main.c    ****     printf("** | CHRONO-M0 | PERIODE | **\n\r");
 645              		.loc 1 146 5 view .LVU165
 646 0050 2148     		ldr	r0, .L56+4
 647              	.LBB45:
 147:src/main.c    ****     // main loop
 148:src/main.c    ****     while (1) {
 149:src/main.c    ****         char c = _getch();
 150:src/main.c    ****         if (mode_g == SIMPLE_MODE) {
 648              		.loc 1 150 20 is_stmt 0 view .LVU166
 649 0052 224E     		ldr	r6, .L56+8
 650 0054 224C     		ldr	r4, .L56+12
 151:src/main.c    ****             if (c == '+') {
 152:src/main.c    ****                 max_ms_g += 100;
 153:src/main.c    ****             } else if (c == '-') {
 154:src/main.c    ****                 max_ms_g -= 100;
 155:src/main.c    ****             }
 156:src/main.c    ****             // apply limits: max_ms_g in [2^0, 2^12]
 157:src/main.c    ****             if (max_ms_g > 4096) {
 158:src/main.c    ****                 max_ms_g = 4096;
 159:src/main.c    ****             } else if (max_ms_g < 1) {
 160:src/main.c    ****                 max_ms_g = 1;
 161:src/main.c    ****             }
 162:src/main.c    ****             
 163:src/main.c    ****         } else {
 164:src/main.c    ****             if (c == '+') {
 165:src/main.c    ****                 swell_time_g += 100;
 166:src/main.c    ****             } else if (c == '-') {
 167:src/main.c    ****                 swell_time_g -= 100;
 168:src/main.c    ****             }
 169:src/main.c    ****             // apply limits: swell_time_g in [1*1000, 10*1000]
 170:src/main.c    ****             if (swell_time_g > 10000) {
 171:src/main.c    ****                 swell_time_g = 10000;
 172:src/main.c    ****             } else if (swell_time_g < 1000) {
 173:src/main.c    ****                 swell_time_g = 1000;
 174:src/main.c    ****             }
 175:src/main.c    ****         }
 176:src/main.c    ****         printf("         %d ms       %5d\r", 42, max_ms_g);
 651              		.loc 1 176 9 view .LVU167
 652 0056 234D     		ldr	r5, .L56+16
 653              	.LBE45:
 146:src/main.c    ****     // main loop
 654              		.loc 1 146 5 view .LVU168
 655 0058 FFF7FEFF 		bl	printf
 656              	.LVL23:
 657              	.L51:
 148:src/main.c    ****         char c = _getch();
 658              		.loc 1 148 5 is_stmt 1 view .LVU169
 659              	.LBB46:
 149:src/main.c    ****         if (mode_g == SIMPLE_MODE) {
 660              		.loc 1 149 9 view .LVU170
 149:src/main.c    ****         if (mode_g == SIMPLE_MODE) {
 661              		.loc 1 149 18 is_stmt 0 view .LVU171
 662 005c FFF7FEFF 		bl	_getch
 663              	.LVL24:
 150:src/main.c    ****             if (c == '+') {
 664              		.loc 1 150 9 is_stmt 1 view .LVU172
 150:src/main.c    ****             if (c == '+') {
 665              		.loc 1 150 20 is_stmt 0 view .LVU173
 666 0060 3378     		ldrb	r3, [r6]	@ zero_extendqisi2
 150:src/main.c    ****             if (c == '+') {
 667              		.loc 1 150 12 view .LVU174
 668 0062 FBB9     		cbnz	r3, .L41
 151:src/main.c    ****                 max_ms_g += 100;
 669              		.loc 1 151 13 is_stmt 1 view .LVU175
 151:src/main.c    ****                 max_ms_g += 100;
 670              		.loc 1 151 16 is_stmt 0 view .LVU176
 671 0064 2B28     		cmp	r0, #43
 672 0066 12D1     		bne	.L42
 152:src/main.c    ****             } else if (c == '-') {
 673              		.loc 1 152 17 is_stmt 1 view .LVU177
 152:src/main.c    ****             } else if (c == '-') {
 674              		.loc 1 152 26 is_stmt 0 view .LVU178
 675 0068 2388     		ldrh	r3, [r4]
 676 006a 6433     		adds	r3, r3, #100
 677              	.L52:
 154:src/main.c    ****             }
 678              		.loc 1 154 26 view .LVU179
 679 006c 9BB2     		uxth	r3, r3
 680 006e 2380     		strh	r3, [r4]	@ movhi
 681              	.L43:
 157:src/main.c    ****                 max_ms_g = 4096;
 682              		.loc 1 157 13 is_stmt 1 view .LVU180
 157:src/main.c    ****                 max_ms_g = 4096;
 683              		.loc 1 157 26 is_stmt 0 view .LVU181
 684 0070 2388     		ldrh	r3, [r4]
 685 0072 9BB2     		uxth	r3, r3
 157:src/main.c    ****                 max_ms_g = 4096;
 686              		.loc 1 157 16 view .LVU182
 687 0074 B3F5805F 		cmp	r3, #4096
 688 0078 0ED9     		bls	.L44
 158:src/main.c    ****             } else if (max_ms_g < 1) {
 689              		.loc 1 158 17 is_stmt 1 view .LVU183
 158:src/main.c    ****             } else if (max_ms_g < 1) {
 690              		.loc 1 158 26 is_stmt 0 view .LVU184
 691 007a 4FF48053 		mov	r3, #4096
 692              	.L54:
 160:src/main.c    ****             }
 693              		.loc 1 160 26 view .LVU185
 694 007e 2380     		strh	r3, [r4]	@ movhi
 695              	.L45:
 696              		.loc 1 176 9 is_stmt 1 view .LVU186
 697 0080 2288     		ldrh	r2, [r4]
 698 0082 2A21     		movs	r1, #42
 699 0084 92B2     		uxth	r2, r2
 700 0086 2846     		mov	r0, r5
 701              	.LVL25:
 702              		.loc 1 176 9 is_stmt 0 view .LVU187
 703 0088 FFF7FEFF 		bl	printf
 704              	.LVL26:
 177:src/main.c    ****         continue;
 705              		.loc 1 177 9 is_stmt 1 view .LVU188
 706              	.LBE46:
 148:src/main.c    ****         char c = _getch();
 707              		.loc 1 148 11 view .LVU189
 148:src/main.c    ****         char c = _getch();
 708              		.loc 1 148 15 is_stmt 0 view .LVU190
 709 008c E6E7     		b	.L51
 710              	.LVL27:
 711              	.L42:
 712              	.LBB47:
 153:src/main.c    ****                 max_ms_g -= 100;
 713              		.loc 1 153 20 is_stmt 1 view .LVU191
 153:src/main.c    ****                 max_ms_g -= 100;
 714              		.loc 1 153 23 is_stmt 0 view .LVU192
 715 008e 2D28     		cmp	r0, #45
 716 0090 EED1     		bne	.L43
 154:src/main.c    ****             }
 717              		.loc 1 154 17 is_stmt 1 view .LVU193
 154:src/main.c    ****             }
 718              		.loc 1 154 26 is_stmt 0 view .LVU194
 719 0092 2388     		ldrh	r3, [r4]
 720 0094 643B     		subs	r3, r3, #100
 721 0096 E9E7     		b	.L52
 722              	.L44:
 159:src/main.c    ****                 max_ms_g = 1;
 723              		.loc 1 159 20 is_stmt 1 view .LVU195
 159:src/main.c    ****                 max_ms_g = 1;
 724              		.loc 1 159 33 is_stmt 0 view .LVU196
 725 0098 2388     		ldrh	r3, [r4]
 726 009a 9BB2     		uxth	r3, r3
 159:src/main.c    ****                 max_ms_g = 1;
 727              		.loc 1 159 23 view .LVU197
 728 009c 002B     		cmp	r3, #0
 729 009e EFD1     		bne	.L45
 160:src/main.c    ****             }
 730              		.loc 1 160 17 is_stmt 1 view .LVU198
 160:src/main.c    ****             }
 731              		.loc 1 160 26 is_stmt 0 view .LVU199
 732 00a0 0123     		movs	r3, #1
 733 00a2 ECE7     		b	.L54
 734              	.L41:
 164:src/main.c    ****                 swell_time_g += 100;
 735              		.loc 1 164 13 is_stmt 1 view .LVU200
 164:src/main.c    ****                 swell_time_g += 100;
 736              		.loc 1 164 16 is_stmt 0 view .LVU201
 737 00a4 2B28     		cmp	r0, #43
 738 00a6 09D1     		bne	.L47
 165:src/main.c    ****             } else if (c == '-') {
 739              		.loc 1 165 17 is_stmt 1 view .LVU202
 165:src/main.c    ****             } else if (c == '-') {
 740              		.loc 1 165 30 is_stmt 0 view .LVU203
 741 00a8 6368     		ldr	r3, [r4, #4]
 742 00aa 6433     		adds	r3, r3, #100
 743              	.L53:
 167:src/main.c    ****             }
 744              		.loc 1 167 30 view .LVU204
 745 00ac 6360     		str	r3, [r4, #4]
 746              	.L48:
 170:src/main.c    ****                 swell_time_g = 10000;
 747              		.loc 1 170 13 is_stmt 1 view .LVU205
 170:src/main.c    ****                 swell_time_g = 10000;
 748              		.loc 1 170 30 is_stmt 0 view .LVU206
 749 00ae 6268     		ldr	r2, [r4, #4]
 170:src/main.c    ****                 swell_time_g = 10000;
 750              		.loc 1 170 16 view .LVU207
 751 00b0 42F21073 		movw	r3, #10000
 752 00b4 9A42     		cmp	r2, r3
 753 00b6 06D9     		bls	.L49
 754              	.L55:
 173:src/main.c    ****             }
 755              		.loc 1 173 30 view .LVU208
 756 00b8 6360     		str	r3, [r4, #4]
 757 00ba E1E7     		b	.L45
 758              	.L47:
 166:src/main.c    ****                 swell_time_g -= 100;
 759              		.loc 1 166 20 is_stmt 1 view .LVU209
 166:src/main.c    ****                 swell_time_g -= 100;
 760              		.loc 1 166 23 is_stmt 0 view .LVU210
 761 00bc 2D28     		cmp	r0, #45
 762 00be F6D1     		bne	.L48
 167:src/main.c    ****             }
 763              		.loc 1 167 17 is_stmt 1 view .LVU211
 167:src/main.c    ****             }
 764              		.loc 1 167 30 is_stmt 0 view .LVU212
 765 00c0 6368     		ldr	r3, [r4, #4]
 766 00c2 643B     		subs	r3, r3, #100
 767 00c4 F2E7     		b	.L53
 768              	.L49:
 172:src/main.c    ****                 swell_time_g = 1000;
 769              		.loc 1 172 20 is_stmt 1 view .LVU213
 172:src/main.c    ****                 swell_time_g = 1000;
 770              		.loc 1 172 37 is_stmt 0 view .LVU214
 771 00c6 6368     		ldr	r3, [r4, #4]
 172:src/main.c    ****                 swell_time_g = 1000;
 772              		.loc 1 172 23 view .LVU215
 773 00c8 B3F57A7F 		cmp	r3, #1000
 774 00cc D8D2     		bcs	.L45
 173:src/main.c    ****             }
 775              		.loc 1 173 17 is_stmt 1 view .LVU216
 173:src/main.c    ****             }
 776              		.loc 1 173 30 is_stmt 0 view .LVU217
 777 00ce 4FF47A73 		mov	r3, #1000
 778 00d2 F1E7     		b	.L55
 779              	.L57:
 780              		.align	2
 781              	.L56:
 782 00d4 00000000 		.word	RCC
 783 00d8 82000000 		.word	.LC4
 784 00dc 00000000 		.word	.LANCHOR0
 785 00e0 00000000 		.word	.LANCHOR1
 786 00e4 A2000000 		.word	.LC5
 787              	.LBE47:
 788              		.cfi_endproc
 789              	.LFE389:
 790              		.size	main, .-main
 791              		.global	duty_cycle_g
 792              		.global	swell_time_g
 793              		.global	max_ms_g
 794              		.global	mode_g
 795              		.data
 796              		.align	2
 797              		.set	.LANCHOR1,. + 0
 798              		.type	max_ms_g, %object
 799              		.size	max_ms_g, 2
 800              	max_ms_g:
 801 0000 F401     		.short	500
 802 0002 0000     		.space	2
 803              		.type	swell_time_g, %object
 804              		.size	swell_time_g, 4
 805              	swell_time_g:
 806 0004 88130000 		.word	5000
 807              		.type	duty_cycle_g, %object
 808              		.size	duty_cycle_g, 4
 809              	duty_cycle_g:
 810 0008 0000803F 		.word	1065353216
 811              		.bss
 812              		.align	1
 813              		.set	.LANCHOR0,. + 0
 814              		.type	mode_g, %object
 815              		.size	mode_g, 1
 816              	mode_g:
 817 0000 00       		.space	1
 818 0001 00       		.space	1
 819              		.type	ms_counter_s.8442, %object
 820              		.size	ms_counter_s.8442, 2
 821              	ms_counter_s.8442:
 822 0002 0000     		.space	2
 823              		.text
 824              	.Letext0:
 825              		.file 4 "/usr/lib/gcc/arm-none-eabi/9.3.0/include/stddef.h"
 826              		.file 5 "/usr/arm-none-eabi/include/machine/_default_types.h"
 827              		.file 6 "/usr/arm-none-eabi/include/sys/_types.h"
 828              		.file 7 "/usr/arm-none-eabi/include/sys/reent.h"
 829              		.file 8 "/usr/arm-none-eabi/include/sys/lock.h"
 830              		.file 9 "/usr/arm-none-eabi/include/sys/_stdint.h"
 831              		.file 10 "/usr/arm-none-eabi/include/stdio.h"
 832              		.file 11 "src/led.h"
 833              		.file 12 "src/button.h"
 834              		.file 13 "src/systick.h"
 835              		.file 14 "src/sys/serial_io.h"
 836              		.file 15 "<built-in>"